// JavaScriptCore order file generated on Thu Apr 15 15:17:53 -0700 2010 by Mike Knippers (knippers@apple.com)
// Scenario included SpringBoard launch/unlock with passcode, launching all apps, MobileSafari page loads,
// keyboard usage and general app interaction.
__ZN3WTF10fastMallocEm
__ZN3WTF10fastMallocILb1EEEPvm
__ZN3WTF20TCMalloc_ThreadCache10InitModuleEv
__ZN3WTFL15InitSizeClassesEv
__Z20TCMalloc_SystemAllocmPmm
__ZN3WTF20TCMalloc_ThreadCache22CreateCacheIfNecessaryEv
__ZN3WTF20TCMalloc_ThreadCache7NewHeapEP17_opaque_pthread_t
__ZN3WTF20TCMalloc_ThreadCache14PickNextSampleEm
__ZN3WTF25TCMalloc_Central_FreeList11RemoveRangeEPPvS2_Pi
__ZN3WTF25TCMalloc_Central_FreeList18FetchFromSpansSafeEv
__ZN3WTF17TCMalloc_PageHeap3NewEm
__ZN3WTF17TCMalloc_PageHeap10AllocLargeEm
__ZN3WTF17TCMalloc_PageHeap8GrowHeapEm
__ZN3WTFL13MetaDataAllocEm
__ZN3WTF17TCMalloc_PageHeap6DeleteEPNS_4SpanE
__ZN3WTF17TCMalloc_PageHeap19IncrementalScavengeEm
__Z22TCMalloc_SystemReleasePvm
__ZN3WTF17TCMalloc_PageHeap5CarveEPNS_4SpanEmb
__ZN3WTF16fastZeroedMallocEm
__ZN3WTF8fastFreeEPv
__ZN3WTF12isMainThreadEv
__ZN3JSC19initializeThreadingEv
__ZN3JSCL23initializeThreadingOnceEv
__ZN3WTF19initializeThreadingEv
__ZN3WTF20initializeMainThreadEv
__ZN3WTF5MutexC1Ev
__ZN3WTF28initializeMainThreadPlatformEv
__ZN3JSC17initializeUStringEv
__ZN3JSC12JSGlobalData10storeVPtrsEv
__ZN3JSC9StructureC1ENS_7JSValueERKNS_8TypeInfoEj
__ZN3JSC7JSArrayC1EN3WTF17NonNullPassRefPtrINS_9StructureEEE
__ZN3JSC7JSArrayD1Ev
__ZN3JSC7JSArrayD2Ev
__ZN3JSC9StructureD1Ev
__ZN3JSC9StructureD2Ev
__ZN3JSC11JSByteArray15createStructureENS_7JSValueE
__ZN3JSC11JSByteArrayD1Ev
__ZN3JSC8JSStringD1Ev
__ZN3JSC8JSStringD2Ev
__ZN3JSC10JSFunctionC1EN3WTF17NonNullPassRefPtrINS_9StructureEEE
__ZN3JSC10JSFunctionD1Ev
__ZN3JSC10JSFunctionD2Ev
__ZN3JSC18VPtrHackExecutableD0Ev
__ZN3JSC16InternalFunctionD2Ev
__ZN3WTF15initializeDatesEv
__ZN3WTF20equivalentYearForDSTEi
__ZN3WTF11currentTimeEv
__ZN3WTF14FastMallocZone4sizeEP14_malloc_zone_tPKv
__ZN3WTF36lockAtomicallyInitializedStaticMutexEv
__ZN3WTF38unlockAtomicallyInitializedStaticMutexEv
__ZN3WTF5Mutex4lockEv
__ZN3WTF5Mutex6unlockEv
__ZN3WTF6strtodEPKcPPc
__ZN3JSC6JSLock12DropAllLocksC1ENS_14JSLockBehaviorE
__ZN3JSC6JSLock12DropAllLocksC2ENS_14JSLockBehaviorE
__ZN3JSCL17createJSLockCountEv
__ZN3JSC6JSLock12DropAllLocksD1Ev
__ZN3WTF20TCMalloc_ThreadCache18DestroyThreadCacheEPv
__ZN3WTF20TCMalloc_ThreadCache11DeleteCacheEPS0_
__ZN3WTF20TCMalloc_ThreadCache21ReleaseToCentralCacheEmi
__ZN3WTF25TCMalloc_Central_FreeList18ReleaseListToSpansEPv
__ZN3JSC12JSGlobalData12createLeakedEv
__ZN3JSC9Structure18startIgnoringLeaksEv
__ZN3JSC12JSGlobalDataC2Eb
__ZN3JSC21createIdentifierTableEv
__ZN3JSC17CommonIdentifiersC1EPNS_12JSGlobalDataE
__ZN3JSC17CommonIdentifiersC2EPNS_12JSGlobalDataE
__ZN3JSC10Identifier3addEPNS_12JSGlobalDataEPKc
__ZNK3JSC11UStringImpl4hashEv
__ZN3WTF9HashTableIPKcSt4pairIS2_NS_6RefPtrIN3JSC11UStringImplEEEENS_18PairFirstExtractorIS8_EENS_7PtrHashIS2_EENS_14PairHashTraitsINS_10HashTraitsIS2_EENSE_IS7_EEEESF_E4findIS2_NS_22IdentityHashTranslatorIS2_S8_SC_EEEENS_17HashTableIteratorIS2_S8_SA_SC_SH_SF_EERKT_
__ZN3WTF9HashTableIPKcSt4pairIS2_NS_6RefPtrIN3JSC11UStringImplEEEENS_18PairFirstExtractorIS8_EENS_7PtrHashIS2_EENS_14PairHashTraitsINS_10HashTraitsIS2_EENSE_IS7_EEEESF_E6rehashEi
__ZN3WTF9HashTableIPKcSt4pairIS2_NS_6RefPtrIN3JSC11UStringImplEEEENS_18PairFirstExtractorIS8_EENS_7PtrHashIS2_EENS_14PairHashTraitsINS_10HashTraitsIS2_EENSE_IS7_EEEESF_E3addIS2_S7_NS_17HashMapTranslatorIS8_SH_SC_EEEES3_INS_17HashTableIteratorIS2_S8_SA_SC_SH_SF_EEbERKT_RKT0_
__ZN3WTF9HashTableIPN3JSC11UStringImplES3_NS_17IdentityExtractorIS3_EENS_7StrHashIS3_EENS_10HashTraitsIS3_EES9_E6rehashEi
__ZN3JSC5equalEPKNS_11UStringImplES2_
__ZN3WTF9HashTableIPN3JSC11UStringImplES3_NS_17IdentityExtractorIS3_EENS_7StrHashIS3_EENS_10HashTraitsIS3_EES9_E4findIS3_NS_22IdentityHashTranslatorIS3_S3_S7_EEEENS_17HashTableIteratorIS3_S3_S5_S7_S9_S9_EERKT_
__ZN3JSC12SmallStringsC1Ev
__ZN3JSC5LexerC1EPNS_12JSGlobalDataE
__ZN3JSC11ParserArenaC1Ev
__ZN3JSC11InterpreterC1Ev
__ZN3JSC11InterpreterC2Ev
__ZN3JSC11Interpreter14privateExecuteENS0_13ExecutionFlagEPNS_12RegisterFileEPNS_9ExecStateEPNS_7JSValueE
__ZN3WTF9HashTableIPKvSt4pairIS2_N3JSC8OpcodeIDEENS_18PairFirstExtractorIS6_EENS_7PtrHashIS2_EENS_14PairHashTraitsINS_10HashTraitsIS2_EENSC_IS5_EEEESD_E4findIS2_NS_22IdentityHashTranslatorIS2_S6_SA_EEEENS_17HashTableIteratorIS2_S6_S8_SA_SF_SD_EERKT_
__ZN3WTF9HashTableIPKvSt4pairIS2_N3JSC8OpcodeIDEENS_18PairFirstExtractorIS6_EENS_7PtrHashIS2_EENS_14PairHashTraitsINS_10HashTraitsIS2_EENSC_IS5_EEEESD_E6rehashEi
__ZN3WTF9HashTableIPKvSt4pairIS2_N3JSC8OpcodeIDEENS_18PairFirstExtractorIS6_EENS_7PtrHashIS2_EENS_14PairHashTraitsINS_10HashTraitsIS2_EENSC_IS5_EEEESD_E3addIS2_S5_NS_17HashMapTranslatorIS6_SF_SA_EEEES3_INS_17HashTableIteratorIS2_S6_S8_SA_SF_SD_EEbERKT_RKT0_
__ZN3JSC14TimeoutCheckerC1Ev
__ZN3JSC4HeapC1EPNS_12JSGlobalDataE
__ZN3JSC4Heap13allocateBlockEv
__ZN3WTF11fastReallocEPvm
__ZN3WTF11fastReallocILb1EEEPvS1_m
__ZN3JSC9MarkStack18initializePagesizeEv
__ZN3JSC9MarkStack13allocateStackEm
__ZN3JSC27startProfilerServerIfNeededEv
+[ProfilerServer sharedProfileServer]
-[ProfilerServer init]
__ZN3JSC25setDefaultIdentifierTableEPNS_15IdentifierTableE
__ZN3JSC29createIdentifierTableSpecificEv
__ZN3JSCL37createIdentifierTableSpecificCallbackEv
__ZN3JSC25setCurrentIdentifierTableEPNS_15IdentifierTableE
__ZN3JSC9Structure17stopIgnoringLeaksEv
__ZN3WTF5MutexD1Ev
__ZN3WTF25TCMalloc_Central_FreeList14MakeCacheSpaceEv
__ZN3WTF25TCMalloc_Central_FreeList11ShrinkCacheEib
__ZN3WTF16callOnMainThreadEPFvPvES0_
__ZN3WTF5DequeINS_19FunctionWithContextEE14expandCapacityEv
__ZN3WTF37scheduleDispatchFunctionsOnMainThreadEv
-[WTFMainThreadCaller call]
__ZN3WTF31dispatchFunctionsFromMainThreadEv
__ZN3WTF15ThreadConditionC1Ev
__ZN3WTF12createThreadEPFPvS0_ES0_PKc
__ZN3WTF20createThreadInternalEPFPvS0_ES0_PKc
__ZN3WTFL16threadEntryPointEPv
__ZN3WTFL35establishIdentifierForPthreadHandleERKP17_opaque_pthread_t
__ZN3WTF9HashTableIjSt4pairIjP17_opaque_pthread_tENS_18PairFirstExtractorIS4_EENS_7IntHashIjEENS_14PairHashTraitsINS_10HashTraitsIjEENSA_IS3_EEEESB_E6rehashEi
__ZN3WTF9HashTableIjSt4pairIjP17_opaque_pthread_tENS_18PairFirstExtractorIS4_EENS_7IntHashIjEENS_14PairHashTraitsINS_10HashTraitsIjEENSA_IS3_EEEESB_E4findIjNS_22IdentityHashTranslatorIjS4_S8_EEEENS_17HashTableIteratorIjS4_S6_S8_SD_SB_EERKT_
__ZN3WTF9HashTableIjSt4pairIjP17_opaque_pthread_tENS_18PairFirstExtractorIS4_EENS_7IntHashIjEENS_14PairHashTraitsINS_10HashTraitsIjEENSA_IS3_EEEESB_E3addIjS3_NS_17HashMapTranslatorIS4_SD_S8_EEEES1_INS_17HashTableIteratorIjS4_S6_S8_SD_SB_EEbERKT_RKT0_
__ZN3WTF31initializeCurrentThreadInternalEPKc
__ZN3WTF20ThreadIdentifierData10initializeEj
__ZN3WTF20ThreadIdentifierData23initializeKeyOnceHelperEv
__ZN3WTF13currentThreadEv
__ZN3WTF20ThreadIdentifierData10identifierEv
__ZN3WTF15ThreadCondition4waitERNS_5MutexE
__ZN3WTF15ThreadCondition9broadcastEv
__ZN3WTF15ThreadCondition6signalEv
__Z15jsRegExpCompilePKti24JSRegExpIgnoreCaseOption23JSRegExpMultilineOptionPjPPKc
__ZL30calculateCompiledPatternLengthPKti24JSRegExpIgnoreCaseOptionR11CompileDataR9ErrorCode
__ZL11checkEscapePPKtS0_P9ErrorCodeib
__ZL13compileBranchiPiPPhPPKtS3_P9ErrorCodeS_S_R11CompileData
__Z15jsRegExpExecutePK8JSRegExpPKtiiPii
__ZL5matchPKtPKhiR9MatchData
__ZN3JSC7UStringC1EPKti
__ZN3JSC7UStringC2EPKti
__ZN3WTF13tryFastMallocEm
__ZN3WTF10fastMallocILb0EEEPvm
__ZN3JSC11UStringImpl12sharedBufferEv
__ZN3JSC4Heap8allocateEm
__ZN3JSC6JSCellD1Ev
__ZN3JSC4Heap7protectENS_7JSValueE
__ZN3WTF9HashTableIPN3JSC6JSCellESt4pairIS3_jENS_18PairFirstExtractorIS5_EENS_7PtrHashIS3_EENS_14PairHashTraitsINS_10HashTraitsIS3_EENSB_IjEEEESC_E6rehashEi
__ZN3WTF9HashTableIPN3JSC6JSCellESt4pairIS3_jENS_18PairFirstExtractorIS5_EENS_7PtrHashIS3_EENS_14PairHashTraitsINS_10HashTraitsIS3_EENSB_IjEEEESC_E4findIS3_NS_22IdentityHashTranslatorIS3_S5_S9_EEEENS_17HashTableIteratorIS3_S5_S7_S9_SE_SC_EERKT_
__ZN3WTF9HashTableIPN3JSC6JSCellESt4pairIS3_jENS_18PairFirstExtractorIS5_EENS_7PtrHashIS3_EENS_14PairHashTraitsINS_10HashTraitsIS3_EENSB_IjEEEESC_E3addIS3_jNS_17HashMapTranslatorIS5_SE_S9_EEEES4_INS_17HashTableIteratorIS3_S5_S7_S9_SE_SC_EEbERKT_RKT0_
__ZN3WTF9HashTableIPN3JSC6JSCellESt4pairIS3_jENS_18PairFirstExtractorIS5_EENS_7PtrHashIS3_EENS_14PairHashTraitsINS_10HashTraitsIS3_EENSB_IjEEEESC_E3addIS3_S5_NS_22IdentityHashTranslatorIS3_S5_S9_EEEES4_INS_17HashTableIteratorIS3_S5_S7_S9_SE_SC_EEbERKT_RKT0_
__ZN3JSC14JSGlobalObjectnwEmPNS_12JSGlobalDataE
__ZN3JSC14JSGlobalObject4initEPNS_8JSObjectE
__ZN3JSC14JSGlobalObject5resetENS_7JSValueE
__ZN3JSC17FunctionPrototypeC1EPNS_9ExecStateEN3WTF17NonNullPassRefPtrINS_9StructureEEE
__ZN3JSC17FunctionPrototypeC2EPNS_9ExecStateEN3WTF17NonNullPassRefPtrINS_9StructureEEE
__ZN3JSC16InternalFunctionC2EPNS_12JSGlobalDataEN3WTF17NonNullPassRefPtrINS_9StructureEEERKNS_10IdentifierE
__ZN3JSC8jsStringEPNS_12JSGlobalDataERKNS_7UStringE
__ZN3JSC12SmallStrings17createEmptyStringEPNS_12JSGlobalDataE
__ZN3JSC7UStringC1EPKc
__ZN3JSCL9createRepEPKc
__ZN3JSC8JSObject17putDirectInternalERKNS_10IdentifierENS_7JSValueEjbRNS_15PutPropertySlotEPNS_6JSCellE
__ZN3JSC9Structure40addPropertyTransitionToExistingStructureEPS0_RKNS_10IdentifierEjPNS_6JSCellERm
__ZNK3JSC24StructureTransitionTable3getERKSt4pairIN3WTF6RefPtrINS_11UStringImplEEEjEPNS_6JSCellE
__ZN3JSC9Structure3getEPKNS_11UStringImplERjRPNS_6JSCellE
__ZN3JSC9Structure21addPropertyTransitionEPS0_RKNS_10IdentifierEjPNS_6JSCellERm
__ZN3JSC9Structure3putERKNS_10IdentifierEjPNS_6JSCellE
__ZN3JSC24StructureTransitionTable3addERKSt4pairIN3WTF6RefPtrINS_11UStringImplEEEjEPNS_9StructureEPNS_6JSCellE
__ZN3JSC9Structure28addPropertyWithoutTransitionERKNS_10IdentifierEjPNS_6JSCellE
__ZN3JSC17FunctionPrototype21addFunctionPropertiesEPNS_9ExecStateEPNS_9StructureEPPNS_17PrototypeFunctionES7_
__ZN3JSC17PrototypeFunctionC1EPNS_9ExecStateEN3WTF17NonNullPassRefPtrINS_9StructureEEEiRKNS_10IdentifierEPFNS_7JSValueES2_PNS_8JSObjectESA_RKNS_7ArgListEE
__ZN3JSC17PrototypeFunctionC2EPNS_9ExecStateEN3WTF17NonNullPassRefPtrINS_9StructureEEEiRKNS_10IdentifierEPFNS_7JSValueES2_PNS_8JSObjectESA_RKNS_7ArgListEE
__ZN3JSC8JSObject34putDirectFunctionWithoutTransitionEPNS_9ExecStateEPNS_16InternalFunctionEj
__ZN3JSC16InternalFunction4nameEPNS_9ExecStateE
__ZN3JSC9Structure3getERKNS_10IdentifierE
__ZN3JSC15ObjectPrototypeC1EPNS_9ExecStateEN3WTF17NonNullPassRefPtrINS_9StructureEEEPS5_
__ZN3JSC15ObjectPrototypeC2EPNS_9ExecStateEN3WTF17NonNullPassRefPtrINS_9StructureEEEPS5_
__ZN3JSC9Structure26rehashPropertyMapHashTableEj
__ZN3JSC8JSObject17createInheritorIDEv
__ZN3JSC14ArrayPrototypeC1EN3WTF17NonNullPassRefPtrINS_9StructureEEE
__ZN3JSC7JSArrayC2EN3WTF17NonNullPassRefPtrINS_9StructureEEE
__ZN3JSC15StringPrototypeC1EPNS_9ExecStateEN3WTF17NonNullPassRefPtrINS_9StructureEEE
__ZN3JSC15StringPrototypeC2EPNS_9ExecStateEN3WTF17NonNullPassRefPtrINS_9StructureEEE
__ZN3JSC12StringObjectC2EPNS_9ExecStateEN3WTF17NonNullPassRefPtrINS_9StructureEEE
__ZN3JSC16BooleanPrototypeC1EPNS_9ExecStateEN3WTF17NonNullPassRefPtrINS_9StructureEEEPS5_
__ZN3JSC16BooleanPrototypeC2EPNS_9ExecStateEN3WTF17NonNullPassRefPtrINS_9StructureEEEPS5_
__ZN3JSC13BooleanObjectC2EN3WTF17NonNullPassRefPtrINS_9StructureEEE
__ZN3JSC15NumberPrototypeC1EPNS_9ExecStateEN3WTF17NonNullPassRefPtrINS_9StructureEEEPS5_
__ZN3JSC15NumberPrototypeC2EPNS_9ExecStateEN3WTF17NonNullPassRefPtrINS_9StructureEEEPS5_
__ZN3JSC12NumberObjectC2EN3WTF17NonNullPassRefPtrINS_9StructureEEE
__ZN3JSC13DatePrototypeC1EPNS_9ExecStateEN3WTF17NonNullPassRefPtrINS_9StructureEEE
__ZN3JSC12DateInstanceC2EPNS_9ExecStateEN3WTF17NonNullPassRefPtrINS_9StructureEEE
__ZN3JSC12nonInlineNaNEv
__ZN3JSC15RegExpPrototypeC1EPNS_9ExecStateEN3WTF17NonNullPassRefPtrINS_9StructureEEEPS5_
__ZN3JSC15RegExpPrototypeC2EPNS_9ExecStateEN3WTF17NonNullPassRefPtrINS_9StructureEEEPS5_
__ZN3JSC14ErrorPrototypeC1EPNS_9ExecStateEN3WTF17NonNullPassRefPtrINS_9StructureEEEPS5_
__ZN3JSC14ErrorPrototypeC2EPNS_9ExecStateEN3WTF17NonNullPassRefPtrINS_9StructureEEEPS5_
__ZN3JSC13ErrorInstanceC2EN3WTF17NonNullPassRefPtrINS_9StructureEEE
__ZN3JSC18jsNontrivialStringEPNS_12JSGlobalDataEPKc
__ZN3JSC20NativeErrorPrototypeC1EPNS_9ExecStateEN3WTF17NonNullPassRefPtrINS_9StructureEEERKNS_7UStringES9_
__ZN3JSC17ObjectConstructorC1EPNS_9ExecStateEN3WTF17NonNullPassRefPtrINS_9StructureEEEPNS_15ObjectPrototypeEPS5_
__ZN3JSC17ObjectConstructorC2EPNS_9ExecStateEN3WTF17NonNullPassRefPtrINS_9StructureEEEPNS_15ObjectPrototypeEPS5_
__ZN3JSC10Identifier3addEPNS_9ExecStateEPKc
__ZN3JSC19FunctionConstructorC1EPNS_9ExecStateEN3WTF17NonNullPassRefPtrINS_9StructureEEEPNS_17FunctionPrototypeE
__ZN3JSC19FunctionConstructorC2EPNS_9ExecStateEN3WTF17NonNullPassRefPtrINS_9StructureEEEPNS_17FunctionPrototypeE
__ZNK3JSC16InternalFunction9classInfoEv
__ZN3JSC16ArrayConstructorC1EPNS_9ExecStateEN3WTF17NonNullPassRefPtrINS_9StructureEEEPNS_14ArrayPrototypeEPS5_
__ZN3JSC16ArrayConstructorC2EPNS_9ExecStateEN3WTF17NonNullPassRefPtrINS_9StructureEEEPNS_14ArrayPrototypeEPS5_
__ZNK3JSC14ArrayPrototype9classInfoEv
__ZN3JSC17StringConstructorC1EPNS_9ExecStateEN3WTF17NonNullPassRefPtrINS_9StructureEEEPS5_PNS_15StringPrototypeE
__ZN3JSC17StringConstructorC2EPNS_9ExecStateEN3WTF17NonNullPassRefPtrINS_9StructureEEEPS5_PNS_15StringPrototypeE
__ZNK3JSC15StringPrototype9classInfoEv
__ZN3JSC18BooleanConstructorC1EPNS_9ExecStateEN3WTF17NonNullPassRefPtrINS_9StructureEEEPNS_16BooleanPrototypeE
__ZN3JSC18BooleanConstructorC2EPNS_9ExecStateEN3WTF17NonNullPassRefPtrINS_9StructureEEEPNS_16BooleanPrototypeE
__ZNK3JSC13BooleanObject9classInfoEv
__ZN3JSC17NumberConstructorC1EPNS_9ExecStateEN3WTF17NonNullPassRefPtrINS_9StructureEEEPNS_15NumberPrototypeE
__ZN3JSC17NumberConstructorC2EPNS_9ExecStateEN3WTF17NonNullPassRefPtrINS_9StructureEEEPNS_15NumberPrototypeE
__ZN3JSC15DateConstructorC1EPNS_9ExecStateEN3WTF17NonNullPassRefPtrINS_9StructureEEEPS5_PNS_13DatePrototypeE
__ZN3JSC15DateConstructorC2EPNS_9ExecStateEN3WTF17NonNullPassRefPtrINS_9StructureEEEPS5_PNS_13DatePrototypeE
__ZNK3JSC13DatePrototype9classInfoEv
__ZN3JSC17RegExpConstructorC1EPNS_9ExecStateEN3WTF17NonNullPassRefPtrINS_9StructureEEEPNS_15RegExpPrototypeE
__ZN3JSC17RegExpConstructorC2EPNS_9ExecStateEN3WTF17NonNullPassRefPtrINS_9StructureEEEPNS_15RegExpPrototypeE
__ZN3JSC16ErrorConstructorC1EPNS_9ExecStateEN3WTF17NonNullPassRefPtrINS_9StructureEEEPNS_14ErrorPrototypeE
__ZN3JSC16ErrorConstructorC2EPNS_9ExecStateEN3WTF17NonNullPassRefPtrINS_9StructureEEEPNS_14ErrorPrototypeE
__ZNK3JSC13ErrorInstance9classInfoEv
__ZN3JSC22NativeErrorConstructorC1EPNS_9ExecStateEN3WTF17NonNullPassRefPtrINS_9StructureEEEPNS_20NativeErrorPrototypeE
__ZN3JSC22NativeErrorConstructorC2EPNS_9ExecStateEN3WTF17NonNullPassRefPtrINS_9StructureEEEPNS_20NativeErrorPrototypeE
__ZNK3JSC6JSCell9getStringEPNS_9ExecStateE
__ZN3JSC10Identifier11addSlowCaseEPNS_9ExecStateEPNS_11UStringImplE
__ZN3JSC10Identifier11addSlowCaseEPNS_12JSGlobalDataEPNS_11UStringImplE
__ZN3WTF9HashTableIPN3JSC11UStringImplES3_NS_17IdentityExtractorIS3_EENS_7StrHashIS3_EENS_10HashTraitsIS3_EES9_E3addIS3_S3_NS_22IdentityHashTranslatorIS3_S3_S7_EEEESt4pairINS_17HashTableIteratorIS3_S3_S5_S7_S9_S9_EEbERKT_RKT0_
__ZN3JSC8JSObject23allocatePropertyStorageEmm
__ZN3JSC10MathObjectC1EPNS_9ExecStateEN3WTF17NonNullPassRefPtrINS_9StructureEEE
__ZN3JSC10MathObjectC2EPNS_9ExecStateEN3WTF17NonNullPassRefPtrINS_9StructureEEE
__ZN3JSC12SmallStrings24singleCharacterStringRepEh
__ZN3JSC19SmallStringsStorageC2Ev
__ZN3JSC14JSGlobalObject16addStaticGlobalsEPNS0_18GlobalPropertyInfoEi
__ZN3WTF9HashTableINS_6RefPtrIN3JSC11UStringImplEEESt4pairIS4_NS2_16SymbolTableEntryEENS_18PairFirstExtractorIS7_EENS2_17IdentifierRepHashENS_14PairHashTraitsINS_10HashTraitsIS4_EENS2_26SymbolTableIndexHashTraitsEEESD_E6rehashEi
__ZN3WTF9HashTableINS_6RefPtrIN3JSC11UStringImplEEESt4pairIS4_NS2_16SymbolTableEntryEENS_18PairFirstExtractorIS7_EENS2_17IdentifierRepHashENS_14PairHashTraitsINS_10HashTraitsIS4_EENS2_26SymbolTableIndexHashTraitsEEESD_E3addIPS3_S6_NS_29RefPtrHashMapRawKeyTranslatorISI_S7_SF_SA_EEEES5_INS_17HashTableIteratorIS4_S7_S9_SA_SF_SD_EEbERKT_RKT0_
__ZN3JSC18GlobalEvalFunctionC1EPNS_9ExecStateEN3WTF17NonNullPassRefPtrINS_9StructureEEEiRKNS_10IdentifierEPFNS_7JSValueES2_PNS_8JSObjectESA_RKNS_7ArgListEEPNS_14JSGlobalObjectE
__ZN3JSC14JSGlobalObject14resetPrototypeENS_7JSValueE
__ZN3JSC9Structure25changePrototypeTransitionEPS0_NS_7JSValueE
__ZN3JSC9Structure17copyPropertyTableEv
__ZN3JSC14JSGlobalObject10globalExecEv
__ZN3JSC4Heap9unprotectENS_7JSValueE
__ZNK3JSC9HashTable11createTableEPNS_12JSGlobalDataE
__ZN3JSC14JSGlobalObject3putEPNS_9ExecStateERKNS_10IdentifierENS_7JSValueERNS_15PutPropertySlotE
__ZN3JSC8JSObject3putEPNS_9ExecStateERKNS_10IdentifierENS_7JSValueERNS_15PutPropertySlotE
__ZN3JSC14TimeoutChecker5resetEv
__ZN3JSC8evaluateEPNS_9ExecStateERNS_10ScopeChainERKNS_10SourceCodeENS_7JSValueE
__ZN3JSC6JSLockC1EPNS_9ExecStateE
__ZN3JSC17ProgramExecutable7compileEPNS_9ExecStateEPNS_14ScopeChainNodeE
__ZN3JSC6Parser5parseINS_11ProgramNodeEEEN3WTF10PassRefPtrIT_EEPNS_12JSGlobalDataEPNS_8DebuggerEPNS_9ExecStateERKNS_10SourceCodeEPiPNS_7UStringE
__ZN3JSC6Parser5parseEPNS_12JSGlobalDataEPiPNS_7UStringE
__ZN3JSC7UStringaSEPKc
__ZN3JSC5Lexer7setCodeERKNS_10SourceCodeERNS_11ParserArenaE
__Z10jscyyparsePv
__ZN3JSC5Lexer3lexEPvS1_
__ZN3JSC5Lexer19shiftLineTerminatorEv
__ZN3JSC10Identifier3addEPNS_12JSGlobalDataEPKti
__ZN3WTF9HashTableIPN3JSC11UStringImplES3_NS_17IdentityExtractorIS3_EENS_7StrHashIS3_EENS_10HashTraitsIS3_EES9_E18addPassingHashCodeINS1_11UCharBufferESC_NS_24HashSetTranslatorAdapterIS3_S9_SC_NS1_21UCharBufferTranslatorEEEEESt4pairINS_17HashTableIteratorIS3_S3_S5_S7_S9_S9_EEbERKT_RKT0_
__ZN3WTF9HashTableIPN3JSC11UStringImplES3_NS_17IdentityExtractorIS3_EENS_7StrHashIS3_EENS_10HashTraitsIS3_EES9_E18addPassingHashCodeIPKcSD_NS_24HashSetTranslatorAdapterIS3_S9_SD_NS1_17CStringTranslatorEEEEESt4pairINS_17HashTableIteratorIS3_S3_S5_S7_S9_S9_EEbERKT_RKT0_
__ZN3WTF9HashTableIPN3JSC11UStringImplES3_NS_17IdentityExtractorIS3_EENS_7StrHashIS3_EENS_10HashTraitsIS3_EES9_E20fullLookupForWritingINS1_11UCharBufferENS_24HashSetTranslatorAdapterIS3_S9_SC_NS1_21UCharBufferTranslatorEEEEESt4pairISG_IPS3_bEjERKT_
__ZN3WTF9HashTableIPN3JSC11UStringImplES3_NS_17IdentityExtractorIS3_EENS_7StrHashIS3_EENS_10HashTraitsIS3_EES9_E20fullLookupForWritingIPKcNS_24HashSetTranslatorAdapterIS3_S9_SD_NS1_17CStringTranslatorEEEEESt4pairISH_IPS3_bEjERKT_
__ZN3WTF15SegmentedVectorIN3JSC10IdentifierELm64EE6appendIS2_EEvRKT_
__ZN3JSC16FunctionBodyNode6createEPNS_12JSGlobalDataE
__ZN3JSC11ParserArena14derefWithArenaEN3WTF10PassRefPtrINS_21ParserArenaRefCountedEEE
__ZN3JSC5Lexer10sourceCodeEiii
__ZN3JSC11ParserArena20allocateFreeablePoolEv
__ZN3JSC16FunctionBodyNode13finishParsingERKNS_10SourceCodeEPNS_13ParameterNodeERKNS_10IdentifierE
__ZN3JSC18FunctionParametersC2EPNS_13ParameterNodeE
__ZN3WTF6VectorIPN3JSC20ParserArenaDeletableELm0EE14expandCapacityEmPKS3_
__ZN3JSC13StatementNode6setLocEii
__ZN3WTF6VectorIPN3JSC16FunctionBodyNodeELm0EE14expandCapacityEmPKS3_
__ZN3JSC14SourceElements6appendEPNS_13StatementNodeE
__ZNK3JSC13StatementNode16isEmptyStatementEv
__ZN3WTF6VectorIPN3JSC13StatementNodeELm0EE14expandCapacityEmPKS3_
__ZN3WTF6VectorIN3JSC10IdentifierELm0EE15reserveCapacityEm
__Z21mergeDeclarationListsIPN3JSC15ParserArenaDataIN3WTF6VectorISt4pairIPKNS0_10IdentifierEjELm0EEEEEET_SC_SC_
__Z21mergeDeclarationListsIPN3JSC15ParserArenaDataIN3WTF6VectorIPNS0_16FunctionBodyNodeELm0EEEEEET_S9_S9_
__ZN3JSC5Lexer10scanRegExpERPKNS_10IdentifierES4_t
__ZN3WTF6VectorItLm0EE14expandCapacityEmPKt
__ZL20makeFunctionCallNodePN3JSC12JSGlobalDataENS_8NodeInfoIPNS_14ExpressionNodeEEENS2_IPNS_13ArgumentsNodeEEEiii
__ZNK3JSC15DotAccessorNode10isLocationEv
__ZNK3JSC14ExpressionNode13isResolveNodeEv
__ZNK3JSC14ExpressionNode21isBracketAccessorNodeEv
__ZN3JSC5Lexer10skipRegExpEv
__ZL14makeAssignNodePN3JSC12JSGlobalDataEPNS_14ExpressionNodeENS_8OperatorES3_bbiii
__ZNK3JSC11ResolveNode10isLocationEv
__ZNK3JSC11ResolveNode13isResolveNodeEv
__ZN3WTF6VectorISt4pairIPKN3JSC10IdentifierEjELm0EE14expandCapacityEmPKS6_
__ZNK3JSC14ExpressionNode10isLocationEv
__ZN3JSC6Parser16didFinishParsingEPNS_14SourceElementsEPNS_15ParserArenaDataIN3WTF6VectorISt4pairIPKNS_10IdentifierEjELm0EEEEEPNS3_INS5_IPNS_16FunctionBodyNodeELm0EEEEEjii
__ZN3JSC5Lexer5clearEv
__ZN3JSC11ProgramNode6createEPNS_12JSGlobalDataEPNS_14SourceElementsEPN3WTF6VectorISt4pairIPKNS_10IdentifierEjELm0EEEPNS6_IPNS_16FunctionBodyNodeELm0EEERKNS_10SourceCodeEji
__ZN3JSC9ScopeNodeC2EPNS_12JSGlobalDataERKNS_10SourceCodeEPNS_14SourceElementsEPN3WTF6VectorISt4pairIPKNS_10IdentifierEjELm0EEEPNS9_IPNS_16FunctionBodyNodeELm0EEEji
__ZN3JSC13ScopeNodeDataC2ERNS_11ParserArenaEPNS_14SourceElementsEPN3WTF6VectorISt4pairIPKNS_10IdentifierEjELm0EEEPNS6_IPNS_16FunctionBodyNodeELm0EEEi
__ZN3JSC11ParserArena10removeLastEv
__ZN3JSC11ParserArena5resetEv
__ZN3WTF15SegmentedVectorIN3JSC10IdentifierELm64EE5clearEv
__ZN3WTF15SegmentedVectorIN3JSC10IdentifierELm64EE17deleteAllSegmentsEv
__ZN3WTF6VectorIN3JSC10IdentifierELm64EE14shrinkCapacityEm
__ZN3WTF6VectorINS_6RefPtrIN3JSC21ParserArenaRefCountedEEELm0EE14shrinkCapacityEm
__ZN3JSC9CodeBlockC2EPNS_16ScriptExecutableENS_8CodeTypeEN3WTF10PassRefPtrINS_14SourceProviderEEEjPNS4_7HashMapINS4_6RefPtrINS_11UStringImplEEENS_16SymbolTableEntryENS_17IdentifierRepHashENS4_10HashTraitsISB_EENS_26SymbolTableIndexHashTraitsEEE
__ZN3WTF9HashTableIPN3JSC15GlobalCodeBlockES3_NS_17IdentityExtractorIS3_EENS_7PtrHashIS3_EENS_10HashTraitsIS3_EES9_E3addIS3_S3_NS_22IdentityHashTranslatorIS3_S3_S7_EEEESt4pairINS_17HashTableIteratorIS3_S3_S5_S7_S9_S9_EEbERKT_RKT0_
__ZN3WTF9HashTableIPN3JSC15GlobalCodeBlockES3_NS_17IdentityExtractorIS3_EENS_7PtrHashIS3_EENS_10HashTraitsIS3_EES9_E6rehashEi
__ZN3JSC17BytecodeGeneratorC1EPNS_11ProgramNodeEPKNS_8DebuggerERKNS_10ScopeChainEPN3WTF7HashMapINS9_6RefPtrINS_11UStringImplEEENS_16SymbolTableEntryENS_17IdentifierRepHashENS9_10HashTraitsISD_EENS_26SymbolTableIndexHashTraitsEEEPNS_16ProgramCodeBlockE
__ZN3JSC17BytecodeGeneratorC2EPNS_11ProgramNodeEPKNS_8DebuggerERKNS_10ScopeChainEPN3WTF7HashMapINS9_6RefPtrINS_11UStringImplEEENS_16SymbolTableEntryENS_17IdentifierRepHashENS9_10HashTraitsISD_EENS_26SymbolTableIndexHashTraitsEEEPNS_16ProgramCodeBlockE
__ZN3JSC17BytecodeGenerator10emitOpcodeENS_8OpcodeIDE
__ZN3WTF15SegmentedVectorIN3JSC10RegisterIDELm32EE17ensureSegmentsForEm
__ZN3WTF6VectorIN3JSC10RegisterIDELm32EE4growEm
__ZN3JSC26BatchedTransitionOptimizerC2EPNS_8JSObjectE
__ZN3JSC9Structure31toCacheableDictionaryTransitionEPS0_
__ZN3JSC9Structure22toDictionaryTransitionEPS0_NS0_14DictionaryKindE
__ZN3JSC24StructureTransitionTable6removeERKSt4pairIN3WTF6RefPtrINS_11UStringImplEEEjEPNS_6JSCellE
__ZN3JSC8JSObject12removeDirectERKNS_10IdentifierE
__ZN3JSC9Structure24removePropertyTransitionEPS0_RKNS_10IdentifierERm
__ZN3JSC9Structure6removeERKNS_10IdentifierE
__ZN3JSC17BytecodeGenerator12addGlobalVarERKNS_10IdentifierEbRPNS_10RegisterIDE
__ZN3WTF15SegmentedVectorIN3JSC10RegisterIDELm32EE6appendIiEEvRKT_
__ZN3JSC17BytecodeGenerator15emitNewFunctionEPNS_10RegisterIDEPNS_16FunctionBodyNodeE
__ZN3JSC9CodeBlock15addFunctionDeclEN3WTF17NonNullPassRefPtrINS_18FunctionExecutableEEE
__ZN3JSC9Structure31removePropertyWithoutTransitionERKNS_10IdentifierE
__ZNK3JSC8JSObject11hasPropertyEPNS_9ExecStateERKNS_10IdentifierE
__ZNK3JSC7UString14toStrictUInt32EPb
__ZN3JSC9Structure26flattenDictionaryStructureEPNS_8JSObjectE
__ZN3JSCL30comparePropertyMapEntryIndicesEPKvS1_
__ZN3JSC17BytecodeGenerator8generateEv
__ZN3JSC11ProgramNode12emitBytecodeERNS_17BytecodeGeneratorEPNS_10RegisterIDE
__ZN3JSC17BytecodeGenerator13emitDebugHookENS_11DebugHookIDEii
__ZN3JSC17BytecodeGenerator12newTemporaryEv
__ZN3WTF15SegmentedVectorIN3JSC10RegisterIDELm32EE6appendImEEvRKT_
__ZN3JSC17BytecodeGenerator8emitLoadEPNS_10RegisterIDENS_7JSValueE
__ZN3JSC17BytecodeGenerator16addConstantValueENS_7JSValueE
__ZN3WTF6VectorIN3JSC8RegisterELm0EE14expandCapacityEmPKS2_
__ZN3JSC17BytecodeGenerator8emitMoveEPNS_10RegisterIDES2_
__ZN3JSC17BytecodeGenerator8emitNodeEPNS_10RegisterIDEPNS_4NodeE
__ZN3WTF6VectorIN3JSC8LineInfoELm0EE14expandCapacityEm
__ZN3JSC12FuncDeclNode12emitBytecodeERNS_17BytecodeGeneratorEPNS_10RegisterIDE
__ZN3JSC6IfNode12emitBytecodeERNS_17BytecodeGeneratorEPNS_10RegisterIDE
__ZN3JSC17BytecodeGenerator8newLabelEv
__ZN3WTF15SegmentedVectorIN3JSC5LabelELm32EE6appendIPNS1_9CodeBlockEEEvRKT_
__ZNK3JSC13LogicalOpNode26hasConditionContextCodegenEv
__ZN3JSC17BytecodeGenerator26emitNodeInConditionContextEPNS_14ExpressionNodeEPNS_5LabelES4_b
__ZN3JSC13LogicalOpNode30emitBytecodeInConditionContextERNS_17BytecodeGeneratorEPNS_5LabelES4_b
__ZNK3JSC14ExpressionNode26hasConditionContextCodegenEv
__ZN3JSC12BinaryOpNode12emitBytecodeERNS_17BytecodeGeneratorEPNS_10RegisterIDE
__ZNK3JSC14ExpressionNode6isNullEv
__ZNK3JSC14ExpressionNode6isPureERNS_17BytecodeGeneratorE
__ZN3JSC15DotAccessorNode12emitBytecodeERNS_17BytecodeGeneratorEPNS_10RegisterIDE
__ZN3JSC11ResolveNode12emitBytecodeERNS_17BytecodeGeneratorEPNS_10RegisterIDE
__ZN3JSC17BytecodeGenerator11registerForERKNS_10IdentifierE
__ZN3JSC17BytecodeGenerator18emitExpressionInfoEjjj
__ZN3WTF6VectorIN3JSC19ExpressionRangeInfoELm0EE14expandCapacityEmPKS2_
__ZN3JSC17BytecodeGenerator11emitGetByIdEPNS_10RegisterIDES2_RKNS_10IdentifierE
__ZN3WTF6VectorIjLm0EE14expandCapacityEmPKj
__ZN3JSC17BytecodeGenerator11addConstantERKNS_10IdentifierE
__ZN3WTF9HashTableINS_6RefPtrIN3JSC11UStringImplEEESt4pairIS4_iENS_18PairFirstExtractorIS6_EENS2_17IdentifierRepHashENS_14PairHashTraitsINS_10HashTraitsIS4_EENS2_17BytecodeGenerator28IdentifierMapIndexHashTraitsEEESC_E6rehashEi
__ZN3WTF9HashTableINS_6RefPtrIN3JSC11UStringImplEEESt4pairIS4_iENS_18PairFirstExtractorIS6_EENS2_17IdentifierRepHashENS_14PairHashTraitsINS_10HashTraitsIS4_EENS2_17BytecodeGenerator28IdentifierMapIndexHashTraitsEEESC_E3addIPS3_iNS_29RefPtrHashMapRawKeyTranslatorISI_S6_SF_S9_EEEES5_INS_17HashTableIteratorIS4_S6_S8_S9_SF_SC_EEbERKT_RKT0_
__ZN3JSC9CodeBlock13addIdentifierERKNS_10IdentifierE
__ZN3JSC17BytecodeGenerator12emitBinaryOpENS_8OpcodeIDEPNS_10RegisterIDES3_S3_NS_12OperandTypesE
__ZN3JSC17BytecodeGenerator15emitJumpIfFalseEPNS_10RegisterIDEPNS_5LabelE
__ZNK3JSC14LogicalNotNode26hasConditionContextCodegenEv
__ZN3JSC11UnaryOpNode12emitBytecodeERNS_17BytecodeGeneratorEPNS_10RegisterIDE
__ZN3JSC19FunctionCallDotNode12emitBytecodeERNS_17BytecodeGeneratorEPNS_10RegisterIDE
__ZN3JSC17BytecodeGenerator15emitMethodCheckEv
__ZN3JSC17BytecodeGenerator8emitCallEPNS_10RegisterIDES2_S2_PNS_13ArgumentsNodeEjjj
__ZN3JSC17BytecodeGenerator8emitCallENS_8OpcodeIDEPNS_10RegisterIDES3_S3_PNS_13ArgumentsNodeEjjj
__ZN3JSC16ArgumentListNode12emitBytecodeERNS_17BytecodeGeneratorEPNS_10RegisterIDE
__ZN3JSC10RegExpNode12emitBytecodeERNS_17BytecodeGeneratorEPNS_10RegisterIDE
__ZN3JSC6RegExp6createEPNS_12JSGlobalDataERKNS_7UStringES5_
__ZN3JSC6RegExpC2EPNS_12JSGlobalDataERKNS_7UStringES5_
__ZNK3JSC7UString4findEti
__ZN3JSC17BytecodeGenerator13emitNewRegExpEPNS_10RegisterIDEPNS_6RegExpE
__ZN3JSC9CodeBlock9addRegExpEPNS_6RegExpE
__ZN3JSC17BytecodeGenerator11emitUnaryOpENS_8OpcodeIDEPNS_10RegisterIDES3_
__ZN3JSC17BytecodeGenerator9emitLabelEPNS_5LabelE
__ZN3JSC9BlockNode12emitBytecodeERNS_17BytecodeGeneratorEPNS_10RegisterIDE
__ZN3JSC17ExprStatementNode12emitBytecodeERNS_17BytecodeGeneratorEPNS_10RegisterIDE
__ZN3JSC17BytecodeGenerator11emitResolveEPNS_10RegisterIDERKNS_10IdentifierE
__ZN3JSC17BytecodeGenerator18findScopedPropertyERKNS_10IdentifierERiRmbRPNS_8JSObjectE
__ZN3JSC13AssignDotNode12emitBytecodeERNS_17BytecodeGeneratorEPNS_10RegisterIDE
__ZN3JSC12FuncExprNode12emitBytecodeERNS_17BytecodeGeneratorEPNS_10RegisterIDE
__ZN3JSC17BytecodeGenerator25emitNewFunctionExpressionEPNS_10RegisterIDEPNS_12FuncExprNodeE
__ZN3JSC9CodeBlock15addFunctionExprEN3WTF17NonNullPassRefPtrINS_18FunctionExecutableEEE
__ZN3JSC17BytecodeGenerator11emitPutByIdEPNS_10RegisterIDERKNS_10IdentifierES2_
__ZN3JSC17AssignResolveNode12emitBytecodeERNS_17BytecodeGeneratorEPNS_10RegisterIDE
__ZN3JSC17BytecodeGenerator15emitResolveBaseEPNS_10RegisterIDERKNS_10IdentifierE
__ZN3JSC16VarStatementNode12emitBytecodeERNS_17BytecodeGeneratorEPNS_10RegisterIDE
__ZN3JSC13LogicalOpNode12emitBytecodeERNS_17BytecodeGeneratorEPNS_10RegisterIDE
__ZN3WTF15SegmentedVectorIN3JSC5LabelELm32EE10removeLastEv
__ZN3JSC17BytecodeGenerator14emitJumpIfTrueEPNS_10RegisterIDEPNS_5LabelE
__ZN3JSC17ObjectLiteralNode12emitBytecodeERNS_17BytecodeGeneratorEPNS_10RegisterIDE
__ZN3JSC17BytecodeGenerator13emitNewObjectEPNS_10RegisterIDE
__ZN3JSC21FunctionCallValueNode12emitBytecodeERNS_17BytecodeGeneratorEPNS_10RegisterIDE
__ZN3JSC10StringNode12emitBytecodeERNS_17BytecodeGeneratorEPNS_10RegisterIDE
__ZN3JSC17BytecodeGenerator8emitLoadEPNS_10RegisterIDERKNS_10IdentifierE
__ZN3WTF9HashTableIPN3JSC11UStringImplESt4pairIS3_PNS1_8JSStringEENS_18PairFirstExtractorIS7_EENS1_17IdentifierRepHashENS_14PairHashTraitsINS_10HashTraitsIS3_EENSC_IS6_EEEESD_E6rehashEi
__ZN3WTF9HashTableIPN3JSC11UStringImplESt4pairIS3_PNS1_8JSStringEENS_18PairFirstExtractorIS7_EENS1_17IdentifierRepHashENS_14PairHashTraitsINS_10HashTraitsIS3_EENSC_IS6_EEEESD_E3addIS3_S6_NS_17HashMapTranslatorIS7_SF_SA_EEEES4_INS_17HashTableIteratorIS3_S7_S9_SA_SF_SD_EEbERKT_RKT0_
__ZN3JSC13jsOwnedStringEPNS_12JSGlobalDataERKNS_7UStringE
__ZN3JSC17BytecodeGenerator16emitUnaryNoDstOpENS_8OpcodeIDEPNS_10RegisterIDE
__ZN3JSC12JSGlobalData22numericCompareFunctionEPNS_9ExecStateE
__ZNK3JSC21UStringSourceProvider6lengthEv
__ZN3JSC18FunctionExecutable14fromGlobalCodeERKNS_10IdentifierEPNS_9ExecStateEPNS_8DebuggerERKNS_10SourceCodeEPiPNS_7UStringE
__ZNK3JSC21UStringSourceProvider4dataEv
__ZNK3JSC9ScopeNode15singleStatementEv
__ZNK3JSC17ExprStatementNode15isExprStatementEv
__ZNK3JSC12FuncExprNode14isFuncExprNodeEv
__ZThn12_N3JSC11ProgramNodeD0Ev
__ZN3JSC9ScopeNodeD2Ev
__ZN3JSC11ParserArenaD1Ev
__ZN3JSC14SourceElementsD1Ev
__ZThn12_N3JSC16FunctionBodyNodeD0Ev
__ZN3WTF10RefCountedIN3JSC18FunctionParametersEE5derefEv
__ZN3WTF15SegmentedVectorIN3JSC10IdentifierELm64EED1Ev
__ZN3JSC18FunctionExecutable7compileEPNS_9ExecStateEPNS_14ScopeChainNodeE
__ZN3JSC6Parser5parseINS_16FunctionBodyNodeEEEN3WTF10PassRefPtrIT_EEPNS_12JSGlobalDataEPNS_8DebuggerEPNS_9ExecStateERKNS_10SourceCodeEPiPNS_7UStringE
__ZL11makeSubNodePN3JSC12JSGlobalDataEPNS_14ExpressionNodeES3_b
__ZN3JSC14ExpressionNode14stripUnaryPlusEv
__ZNK3JSC14ExpressionNode8isNumberEv
__ZN3JSC16FunctionBodyNode6createEPNS_12JSGlobalDataEPNS_14SourceElementsEPN3WTF6VectorISt4pairIPKNS_10IdentifierEjELm0EEEPNS6_IPS0_Lm0EEERKNS_10SourceCodeEji
__ZN3JSC16FunctionBodyNode13finishParsingEN3WTF10PassRefPtrINS_18FunctionParametersEEERKNS_10IdentifierE
__ZN3JSC17BytecodeGeneratorC1EPNS_16FunctionBodyNodeEPKNS_8DebuggerERKNS_10ScopeChainEPN3WTF7HashMapINS9_6RefPtrINS_11UStringImplEEENS_16SymbolTableEntryENS_17IdentifierRepHashENS9_10HashTraitsISD_EENS_26SymbolTableIndexHashTraitsEEEPNS_9CodeBlockE
__ZN3JSC17BytecodeGeneratorC2EPNS_16FunctionBodyNodeEPKNS_8DebuggerERKNS_10ScopeChainEPN3WTF7HashMapINS9_6RefPtrINS_11UStringImplEEENS_16SymbolTableEntryENS_17IdentifierRepHashENS9_10HashTraitsISD_EENS_26SymbolTableIndexHashTraitsEEEPNS_9CodeBlockE
__ZN3JSC17BytecodeGenerator12addParameterERKNS_10IdentifierE
__ZN3JSC16FunctionBodyNode12emitBytecodeERNS_17BytecodeGeneratorEPNS_10RegisterIDE
__ZN3JSC10ReturnNode12emitBytecodeERNS_17BytecodeGeneratorEPNS_10RegisterIDE
__ZNK3JSC11ResolveNode6isPureERNS_17BytecodeGeneratorE
__ZN3JSC17BytecodeGenerator7isLocalERKNS_10IdentifierE
__ZN3JSC17BytecodeGenerator10emitReturnEPNS_10RegisterIDE
__ZNK3JSC9BlockNode7isBlockEv
__ZNK3JSC10ReturnNode12isReturnNodeEv
__ZN3WTF6OwnPtrIN3JSC13ExceptionInfoEE5clearEv
__ZN3JSC9CodeBlock11shrinkToFitEv
__ZN3WTF6VectorIN3JSC10IdentifierELm0EE14shrinkCapacityEm
__ZN3WTF6VectorINS_6RefPtrIN3JSC18FunctionExecutableEEELm0EE14shrinkCapacityEm
__ZN3JSC17BytecodeGeneratorD2Ev
__ZN3WTF15SegmentedVectorIN3JSC10LabelScopeELm8EED1Ev
__ZN3WTF15SegmentedVectorIN3JSC10LabelScopeELm8EE17deleteAllSegmentsEv
__ZN3WTF15SegmentedVectorIN3JSC5LabelELm32EED1Ev
__ZN3WTF15SegmentedVectorIN3JSC5LabelELm32EE17deleteAllSegmentsEv
__ZN3WTF15SegmentedVectorIN3JSC10RegisterIDELm32EED1Ev
__ZN3WTF6VectorIN3JSC11InstructionELm0EEaSERKS3_
__ZN3JSC18FunctionExecutableD0Ev
__ZN3JSC17FunctionCodeBlockD0Ev
__ZN3JSC9CodeBlockD2Ev
__ZN3WTF6OwnPtrIN3JSC13ExceptionInfoEED1Ev
__ZN3JSC11UStringImplD1Ev
__ZN3JSC11UStringImplD2Ev
__ZN3JSC10Identifier6removeEPNS_11UStringImplE
__ZN3JSC22currentIdentifierTableEv
__ZN3JSC21UStringSourceProviderD0Ev
__ZN3WTF6VectorINS_6RefPtrIN3JSC6RegExpEEELm0EE14shrinkCapacityEm
__ZN3WTF6VectorIN3JSC15SimpleJumpTableELm0EE14shrinkCapacityEm
__ZN3WTF6VectorIN3JSC15StringJumpTableELm0EE14shrinkCapacityEm
__ZN3JSC15ParserArenaDataIN3WTF6VectorIPNS_16FunctionBodyNodeELm0EEEED1Ev
__ZN3JSC15ParserArenaDataIN3WTF6VectorISt4pairIPKNS_10IdentifierEjELm0EEEED1Ev
__ZNK3JSC8JSObject8toObjectEPNS_9ExecStateE
__ZN3JSC11Interpreter7executeEPNS_17ProgramExecutableEPNS_9ExecStateEPNS_14ScopeChainNodeEPNS_8JSObjectEPNS_7JSValueE
__ZN3JSC12JSGlobalData14resetDateCacheEv
__ZN3JSC14JSGlobalObject13copyGlobalsToERNS_12RegisterFileE
__ZN3JSC18FunctionExecutable4makeEPNS_9ExecStateEPNS_14ScopeChainNodeE
__ZN3JSC10JSFunctionC1EPNS_9ExecStateEN3WTF17NonNullPassRefPtrINS_18FunctionExecutableEEEPNS_14ScopeChainNodeE
__ZNK3JSC7JSValue3getEPNS_9ExecStateERKNS_10IdentifierERNS_12PropertySlotE
__ZN3JSC11Interpreter15tryCacheGetByIDEPNS_9ExecStateEPNS_9CodeBlockEPNS_11InstructionENS_7JSValueERKNS_10IdentifierERKNS_12PropertySlotE
__ZN3JSC7JSValue13equalSlowCaseEPNS_9ExecStateES0_S0_
__ZN3JSC10JSFunction18getOwnPropertySlotEPNS_9ExecStateERKNS_10IdentifierERNS_12PropertySlotE
__ZN3JSC9Structure13hasTransitionEPNS_11UStringImplEj
__ZN3JSC11Interpreter15tryCachePutByIDEPNS_9ExecStateEPNS_9CodeBlockEPNS_11InstructionENS_7JSValueERKNS_15PutPropertySlotE
__ZN3JSC11Interpreter13resolveGlobalEPNS_9ExecStateEPNS_11InstructionERNS_7JSValueE
__ZNK3JSC8JSObject9toBooleanEPNS_9ExecStateE
__ZN3JSC10JSFunction11getCallDataERNS_8CallDataE
__ZL15makePostfixNodePN3JSC12JSGlobalDataEPNS_14ExpressionNodeENS_8OperatorEiii
__ZNK3JSC18EmptyStatementNode16isEmptyStatementEv
__ZNK3JSC10NumberNode8isNumberEv
__ZN3JSC17BytecodeGenerator6addVarERKNS_10IdentifierEbRPNS_10RegisterIDE
__ZN3JSC17BytecodeGenerator15isLocalConstantERKNS_10IdentifierE
__ZNK3JSC16JSVariableObject16isVariableObjectEv
__ZN3JSC17BytecodeGenerator16emitGetScopedVarEPNS_10RegisterIDEmiNS_7JSValueE
__ZN3JSC7ForNode12emitBytecodeERNS_17BytecodeGeneratorEPNS_10RegisterIDE
__ZN3JSC17BytecodeGenerator13newLabelScopeENS_10LabelScope4TypeEPKNS_10IdentifierE
__ZN3WTF15SegmentedVectorIN3JSC10LabelScopeELm8EE6appendIS2_EEvRKT_
__ZN3JSC10NumberNode12emitBytecodeERNS_17BytecodeGeneratorEPNS_10RegisterIDE
__ZN3JSC17BytecodeGenerator8emitLoadEPNS_10RegisterIDEd
__ZN3JSC17BytecodeGenerator8emitJumpEPNS_5LabelE
__ZN3JSC15ConditionalNode12emitBytecodeERNS_17BytecodeGeneratorEPNS_10RegisterIDE
__ZL14compileBracketiPiPPhPPKtS3_P9ErrorCodeiS_S_R11CompileData
__ZNK3JSC14JSGlobalObject14isDynamicScopeEv
__ZN3JSC9BreakNode12emitBytecodeERNS_17BytecodeGeneratorEPNS_10RegisterIDE
__ZN3JSC17BytecodeGenerator11breakTargetERKNS_10IdentifierE
__ZN3JSC17BytecodeGenerator14emitJumpScopesEPNS_5LabelEi
__ZN3JSC18PostfixResolveNode12emitBytecodeERNS_17BytecodeGeneratorEPNS_10RegisterIDE
__ZN3JSC17BytecodeGenerator10emitPreIncEPNS_10RegisterIDE
__ZN3JSC19BracketAccessorNode12emitBytecodeERNS_17BytecodeGeneratorEPNS_10RegisterIDE
__ZN3JSC17BytecodeGenerator12emitGetByValEPNS_10RegisterIDES2_S2_
__ZNK3JSC10NumberNode6isPureERNS_17BytecodeGeneratorE
__ZN3JSC16PropertyListNode12emitBytecodeERNS_17BytecodeGeneratorEPNS_10RegisterIDE
__ZN3JSC23setUpStaticFunctionSlotEPNS_9ExecStateEPKNS_9HashEntryEPNS_8JSObjectERKNS_10IdentifierERNS_12PropertySlotE
__ZN3JSC17PrototypeFunction11getCallDataERNS_8CallDataE
__ZNK3JSC7JSValue3getEPNS_9ExecStateEjRNS_12PropertySlotE
__ZNK3JSC12PropertySlot8getValueEPNS_9ExecStateEj
__ZN3JSC7UString4fromEj
__ZNK3JSC8JSString9toBooleanEPNS_9ExecStateE
__ZN3JSC12RegExpObjectC1EN3WTF17NonNullPassRefPtrINS_9StructureEEENS2_INS_6RegExpEEE
__ZN3JSC12RegExpObject18getOwnPropertySlotEPNS_9ExecStateERKNS_10IdentifierERNS_12PropertySlotE
__ZN3JSC18getStaticValueSlotINS_12RegExpObjectENS_8JSObjectEEEbPNS_9ExecStateEPKNS_9HashTableEPT_RKNS_10IdentifierERNS_12PropertySlotE
__ZN3JSCL19regExpProtoFuncTestEPNS_9ExecStateEPNS_8JSObjectENS_7JSValueERKNS_7ArgListE
__ZNK3JSC12RegExpObject9classInfoEv
__ZN3JSC12RegExpObject4testEPNS_9ExecStateERKNS_7ArgListE
__ZN3JSC12RegExpObject5matchEPNS_9ExecStateERKNS_7ArgListE
__ZNK3JSC7JSValue8toStringEPNS_9ExecStateE
__ZN3JSC17RegExpConstructor12performMatchEPNS_6RegExpERKNS_7UStringEiRiS6_PPi
__ZN3JSC6RegExp5matchERKNS_7UStringEiPN3WTF6VectorIiLm32EEE
__ZN3JSC17RegExpConstructor18getOwnPropertySlotEPNS_9ExecStateERKNS_10IdentifierERNS_12PropertySlotE
__ZN3JSC18getStaticValueSlotINS_17RegExpConstructorENS_16InternalFunctionEEEbPNS_9ExecStateEPKNS_9HashTableEPT_RKNS_10IdentifierERNS_12PropertySlotE
__ZN3JSCL24regExpConstructorDollar1EPNS_9ExecStateERKNS_10IdentifierERKNS_12PropertySlotE
__ZN3JSC11jsSubstringEPNS_12JSGlobalDataERKNS_7UStringEjj
__ZN3JSC8JSString18getOwnPropertySlotEPNS_9ExecStateERKNS_10IdentifierERNS_12PropertySlotE
__ZN3JSC15StringPrototype18getOwnPropertySlotEPNS_9ExecStateERKNS_10IdentifierERNS_12PropertySlotE
__ZN3JSC12StringObject18getOwnPropertySlotEPNS_9ExecStateERKNS_10IdentifierERNS_12PropertySlotE
__ZN3JSCL22stringProtoFuncIndexOfEPNS_9ExecStateEPNS_8JSObjectENS_7JSValueERKNS_7ArgListE
__ZNK3JSC8JSString12toThisStringEPNS_9ExecStateE
__ZNK3JSC7UString4findERKS0_i
__ZN3JSC7JSValue11strictEqualEPNS_9ExecStateES0_S0_
__ZN3JSC24StructureTransitionTable21reifySingleTransitionEv
__ZN3WTF9HashTableISt4pairINS_6RefPtrIN3JSC11UStringImplEEEjES1_IS6_S1_IPNS3_9StructureES8_EENS_18PairFirstExtractorISA_EENS3_28StructureTransitionTableHashENS_14PairHashTraitsINS3_34StructureTransitionTableHashTraitsENS_10HashTraitsIS9_EEEESF_E4findIS6_NS_22IdentityHashTranslatorIS6_SA_SD_EEEENS_17HashTableIteratorIS6_SA_SC_SD_SI_SF_EERKT_
__ZN3WTF9HashTableISt4pairINS_6RefPtrIN3JSC11UStringImplEEEjES1_IS6_S1_IPNS3_9StructureES8_EENS_18PairFirstExtractorISA_EENS3_28StructureTransitionTableHashENS_14PairHashTraitsINS3_34StructureTransitionTableHashTraitsENS_10HashTraitsIS9_EEEESF_E6rehashEi
__ZN3WTF9HashTableISt4pairINS_6RefPtrIN3JSC11UStringImplEEEjES1_IS6_S1_IPNS3_9StructureES8_EENS_18PairFirstExtractorISA_EENS3_28StructureTransitionTableHashENS_14PairHashTraitsINS3_34StructureTransitionTableHashTraitsENS_10HashTraitsIS9_EEEESF_E3addIS6_S9_NS_17HashMapTranslatorISA_SI_SD_EEEES1_INS_17HashTableIteratorIS6_SA_SC_SD_SI_SF_EEbERKT_RKT0_
__ZN3WTF9HashTableINS_6RefPtrIN3JSC11UStringImplEEES4_NS_17IdentityExtractorIS4_EENS2_17IdentifierRepHashENS_10HashTraitsIS4_EES9_E6rehashEi
__ZN3WTF9HashTableINS_6RefPtrIN3JSC11UStringImplEEES4_NS_17IdentityExtractorIS4_EENS2_17IdentifierRepHashENS_10HashTraitsIS4_EES9_E3addIS4_S4_NS_22IdentityHashTranslatorIS4_S4_S7_EEEESt4pairINS_17HashTableIteratorIS4_S4_S6_S7_S9_S9_EEbERKT_RKT0_
__ZN3JSC11BooleanNode12emitBytecodeERNS_17BytecodeGeneratorEPNS_10RegisterIDE
__ZN3JSC17BytecodeGenerator8emitLoadEPNS_10RegisterIDEb
__ZN3JSC10IfElseNode12emitBytecodeERNS_17BytecodeGeneratorEPNS_10RegisterIDE
__ZNK3JSC13StatementNode12isReturnNodeEv
__ZN3JSC12JSActivationC1EPNS_9ExecStateEN3WTF17NonNullPassRefPtrINS_18FunctionExecutableEEE
__ZNK3JSC8JSObject12toThisObjectEPNS_9ExecStateE
__ZN3JSC12JSActivation13copyRegistersEPNS_9ArgumentsE
__ZN3JSCL20stringProtoFuncMatchEPNS_9ExecStateEPNS_8JSObjectENS_7JSValueERKNS_7ArgListE
__ZNK3JSC6JSCell9classInfoEv
__ZN3JSC6RegExp6createEPNS_12JSGlobalDataERKNS_7UStringE
__ZN3JSC6RegExpD1Ev
__Z12jsRegExpFreeP8JSRegExp
__ZL11makeAddNodePN3JSC12JSGlobalDataEPNS_14ExpressionNodeES3_b
__ZNK3JSC19BracketAccessorNode10isLocationEv
__ZNK3JSC19BracketAccessorNode21isBracketAccessorNodeEv
__ZL14makePrefixNodePN3JSC12JSGlobalDataEPNS_14ExpressionNodeENS_8OperatorEiii
__ZN3JSC9ThrowNode12emitBytecodeERNS_17BytecodeGeneratorEPNS_10RegisterIDE
__ZNK3JSC14ExpressionNode5isAddEv
__ZNK3JSC12JSActivation14isDynamicScopeEv
__ZN3JSC15StrictEqualNode12emitBytecodeERNS_17BytecodeGeneratorEPNS_10RegisterIDE
__ZNK3JSC11BooleanNode6isPureERNS_17BytecodeGeneratorE
__ZN3JSC17BytecodeGenerator14emitEqualityOpENS_8OpcodeIDEPNS_10RegisterIDES3_S3_
__ZN3JSC23FunctionCallResolveNode12emitBytecodeERNS_17BytecodeGeneratorEPNS_10RegisterIDE
__ZNK3JSC7AddNode5isAddEv
__ZN3JSC12BinaryOpNode10emitStrcatERNS_17BytecodeGeneratorEPNS_10RegisterIDES4_PNS_21ReadModifyResolveNodeE
__ZNK3JSC10StringNode8isStringEv
__ZNK3JSC14ExpressionNode8isStringEv
__ZN3JSC17BytecodeGenerator15emitToPrimitiveEPNS_10RegisterIDES2_
__ZN3JSC17BytecodeGenerator10emitStrcatEPNS_10RegisterIDES2_i
__ZN3JSC17AssignBracketNode12emitBytecodeERNS_17BytecodeGeneratorEPNS_10RegisterIDE
__ZN3JSC17BytecodeGenerator12emitPutByValEPNS_10RegisterIDES2_S2_
__ZN3JSC9EqualNode12emitBytecodeERNS_17BytecodeGeneratorEPNS_10RegisterIDE
__ZNK3JSC10StringNode6isPureERNS_17BytecodeGeneratorE
__ZN3JSC17TypeOfResolveNode12emitBytecodeERNS_17BytecodeGeneratorEPNS_10RegisterIDE
__ZN3JSCeqERKNS_7UStringEPKc
__ZN3JSC9ArrayNode12emitBytecodeERNS_17BytecodeGeneratorEPNS_10RegisterIDE
__ZN3JSC17BytecodeGenerator12emitNewArrayEPNS_10RegisterIDEPNS_11ElementNodeE
__ZN3JSC13PrefixDotNode12emitBytecodeERNS_17BytecodeGeneratorEPNS_10RegisterIDE
__ZN3JSC8JSStringC2EPNS_12JSGlobalDataEjPS0_S3_
__ZN3JSC9ArgumentsC2EPNS_9ExecStateE
__ZN3JSC9Arguments18getOwnPropertySlotEPNS_9ExecStateERKNS_10IdentifierERNS_12PropertySlotE
__ZN3JSC9Arguments18getOwnPropertySlotEPNS_9ExecStateEjRNS_12PropertySlotE
__ZN3JSC17BytecodeGenerator16emitPutScopedVarEmiPNS_10RegisterIDENS_7JSValueE
__ZNK3JSC8JSString11resolveRopeEPNS_9ExecStateE
__ZNK3JSC7UString8toUInt32EPbb
__ZNK3JSC7UString8toDoubleEbb
__ZN3JSC8JSObject18getOwnPropertySlotEPNS_9ExecStateEjRNS_12PropertySlotE
__ZN3JSC15ObjectPrototype18getOwnPropertySlotEPNS_9ExecStateEjRNS_12PropertySlotE
__ZNK3JSC8JSString11toPrimitiveEPNS_9ExecStateENS_22PreferredPrimitiveTypeE
__ZN3JSC8JSString40appendValueInConstructAndIncrementLengthEPNS_9ExecStateERjNS_7JSValueE
__ZN3JSC16jsIsFunctionTypeENS_7JSValueE
__ZNK3JSC9CodeBlock13refStructuresEPNS_11InstructionE
__ZN3JSC23normalizePrototypeChainEPNS_9ExecStateENS_7JSValueES2_RKNS_10IdentifierERm
__ZNK3JSC9Structure14prototypeChainEPNS_9ExecStateE
__ZN3JSC14StructureChainC1EPNS_9StructureE
__ZN3JSC14StructureChainC2EPNS_9StructureE
__ZN3JSC17ProgramExecutableD0Ev
__ZN3JSC16ProgramCodeBlockD0Ev
__ZN3JSC15GlobalCodeBlockD2Ev
__ZN3WTF9HashTableIPN3JSC15GlobalCodeBlockES3_NS_17IdentityExtractorIS3_EENS_7PtrHashIS3_EENS_10HashTraitsIS3_EES9_E4findIS3_NS_22IdentityHashTranslatorIS3_S3_S7_EEEENS_17HashTableIteratorIS3_S3_S5_S7_S9_S9_EERKT_
__ZNK3JSC9CodeBlock15derefStructuresEPNS_11InstructionE
__ZN3JSC9CodeBlock8RareDataD2Ev
__ZN3WTF9HashTableINS_6RefPtrIN3JSC11UStringImplEEESt4pairIS4_NS1_INS2_14EvalExecutableEEEENS_18PairFirstExtractorIS8_EENS_7StrHashIS4_EENS_14PairHashTraitsINS_10HashTraitsIS4_EENSE_IS7_EEEESF_E15deallocateTableEPS8_i
__ZN3WTF9HashTableINS_6RefPtrIN3JSC11UStringImplEEESt4pairIS4_NS1_INS2_14EvalExecutableEEEENS_18PairFirstExtractorIS8_EENS_7StrHashIS4_EENS_14PairHashTraitsINS_10HashTraitsIS4_EENSE_IS7_EEEESF_E4findIS4_NS_22IdentityHashTranslatorIS4_S8_SC_EEEENS_17HashTableIteratorIS4_S8_SA_SC_SH_SF_EERKT_
__ZN3WTF9HashTableINS_6RefPtrIN3JSC11UStringImplEEESt4pairIS4_NS1_INS2_14EvalExecutableEEEENS_18PairFirstExtractorIS8_EENS_7StrHashIS4_EENS_14PairHashTraitsINS_10HashTraitsIS4_EENSE_IS7_EEEESF_E6rehashEi
__ZN3WTF9HashTableINS_6RefPtrIN3JSC11UStringImplEEESt4pairIS4_NS1_INS2_14EvalExecutableEEEENS_18PairFirstExtractorIS8_EENS_7StrHashIS4_EENS_14PairHashTraitsINS_10HashTraitsIS4_EENSE_IS7_EEEESF_E3addIPS3_S7_NS_29RefPtrHashMapRawKeyTranslatorISK_S8_SH_SC_EEEES5_INS_17HashTableIteratorIS4_S8_SA_SC_SH_SF_EEbERKT_RKT0_
__ZN3WTF6VectorIN3JSC15StringJumpTableELm0EED1Ev
__ZN3WTF6VectorIPvLm0EE14expandCapacityEmPKS1_
__ZN3WTF6VectorIPNS0_IN3JSC10IdentifierELm64EEELm32EE14expandCapacityEmPKS4_
__ZN3JSC19ReverseBinaryOpNode12emitBytecodeERNS_17BytecodeGeneratorEPNS_10RegisterIDE
__ZN3JSC8WithNode12emitBytecodeERNS_17BytecodeGeneratorEPNS_10RegisterIDE
__ZN3JSC17BytecodeGenerator13emitPushScopeEPNS_10RegisterIDE
__ZN3WTF6VectorIN3JSC18ControlFlowContextELm0EE14expandCapacityEmPKS2_
__ZN3JSC17BytecodeGenerator12emitPopScopeEv
__ZL33bracketFindFirstAssertedCharacterPKhb
__ZL32branchFindFirstAssertedCharacterPKhb
__ZL20branchNeedsLineStartPKhjj
__ZN3WTF9HashTableIxSt4pairIxjENS_18PairFirstExtractorIS2_EENS_7IntHashIxEENS_14PairHashTraitsIN3JSC24EncodedJSValueHashTraitsENS_10HashTraitsIjEEEES9_E4findIxNS_22IdentityHashTranslatorIxS2_S6_EEEENS_17HashTableIteratorIxS2_S4_S6_SC_S9_EERKT_
__ZN3WTF9HashTableIxSt4pairIxjENS_18PairFirstExtractorIS2_EENS_7IntHashIxEENS_14PairHashTraitsIN3JSC24EncodedJSValueHashTraitsENS_10HashTraitsIjEEEES9_E6rehashEi
__ZN3WTF9HashTableIxSt4pairIxjENS_18PairFirstExtractorIS2_EENS_7IntHashIxEENS_14PairHashTraitsIN3JSC24EncodedJSValueHashTraitsENS_10HashTraitsIjEEEES9_E3addIxjNS_17HashMapTranslatorIS2_SC_S6_EEEES1_INS_17HashTableIteratorIxS2_S4_S6_SC_S9_EEbERKT_RKT0_
__ZN3JSC23CallFunctionCallDotNode12emitBytecodeERNS_17BytecodeGeneratorEPNS_10RegisterIDE
__ZN3JSC17BytecodeGenerator25emitJumpIfNotFunctionCallEPNS_10RegisterIDEPNS_5LabelE
__ZN3JSC21ThrowableBinaryOpNode12emitBytecodeERNS_17BytecodeGeneratorEPNS_10RegisterIDE
__ZN3JSC11NewExprNode12emitBytecodeERNS_17BytecodeGeneratorEPNS_10RegisterIDE
__ZN3JSC17BytecodeGenerator13emitConstructEPNS_10RegisterIDES2_PNS_13ArgumentsNodeEjjj
__ZN3WTF6VectorIN3JSC20GetByIdExceptionInfoELm0EE14expandCapacityEmPKS2_
__ZN3JSC12SmallStrings27createSingleCharacterStringEPNS_12JSGlobalDataEh
__ZNK3JSC17RegExpConstructor14arrayOfMatchesEPNS_9ExecStateE
__ZN3JSC18RegExpMatchesArrayC2EPNS_9ExecStateEPNS_24RegExpConstructorPrivateE
__ZN3JSC7JSArrayC2EN3WTF17NonNullPassRefPtrINS_9StructureEEEj
__ZN3JSC7JSArray19setLazyCreationDataEPv
__ZNK3JSC7UString10getCStringERN3WTF6VectorIcLm32EEE
__ZN3JSC9ForInNodeC2EPNS_12JSGlobalDataERKNS_10IdentifierEPNS_14ExpressionNodeES7_PNS_13StatementNodeEiii
__ZN3JSC20ParserArenaDeletablenwEmPNS_12JSGlobalDataE
__ZN3JSC9ForInNode12emitBytecodeERNS_17BytecodeGeneratorEPNS_10RegisterIDE
__ZN3JSC17BytecodeGenerator20emitGetPropertyNamesEPNS_10RegisterIDES2_S2_S2_PNS_5LabelE
__ZN3JSC17BytecodeGenerator18pushOptimisedForInEPNS_10RegisterIDES2_S2_S2_
__ZN3WTF6VectorIN3JSC12ForInContextELm0EE14expandCapacityEmPKS2_
__ZN3WTF11VectorMoverILb0EN3JSC12ForInContextEE4moveEPKS2_S5_PS2_
__ZN3JSC17BytecodeGenerator20emitNextPropertyNameEPNS_10RegisterIDES2_S2_S2_S2_PNS_5LabelE
__ZN3JSC22JSPropertyNameIterator6createEPNS_9ExecStateEPNS_8JSObjectE
__ZN3JSC8JSObject16getPropertyNamesEPNS_9ExecStateERNS_17PropertyNameArrayENS_15EnumerationModeE
__ZN3JSC8JSObject19getOwnPropertyNamesEPNS_9ExecStateERNS_17PropertyNameArrayENS_15EnumerationModeE
__ZN3JSC9Structure16getPropertyNamesERNS_17PropertyNameArrayENS_15EnumerationModeE
__ZN3JSC17PropertyNameArray14addKnownUniqueEPNS_11UStringImplE
__ZN3WTF10RefCountedIN3JSC21PropertyNameArrayDataEE5derefEv
__ZN3JSC22JSPropertyNameIterator3getEPNS_9ExecStateEPNS_8JSObjectEm
__ZN3JSC9Structure27despecifyFunctionTransitionEPS0_RKNS_10IdentifierE
__ZN3JSC9Structure17despecifyFunctionERKNS_10IdentifierE
__ZN3JSC9Structure22materializePropertyMapEv
__ZNK3JSC14ExpressionNode11isCommaNodeEv
__ZN3JSC9CommaNodeC1EPNS_12JSGlobalDataEPNS_14ExpressionNodeES4_
__ZN3JSC8ThisNode12emitBytecodeERNS_17BytecodeGeneratorEPNS_10RegisterIDE
__ZN3JSC9CommaNode12emitBytecodeERNS_17BytecodeGeneratorEPNS_10RegisterIDE
__ZN3JSC9CommaNodeD1Ev
__ZN3JSC9WhileNode12emitBytecodeERNS_17BytecodeGeneratorEPNS_10RegisterIDE
__ZN3JSC17BytecodeGenerator11emitPostDecEPNS_10RegisterIDES2_
__ZN3JSC16ArrayConstructor16getConstructDataERNS_13ConstructDataE
__ZN3JSCL29constructWithArrayConstructorEPNS_9ExecStateEPNS_8JSObjectERKNS_7ArgListE
__ZN3JSCL27constructArrayWithSizeQuirkEPNS_9ExecStateERKNS_7ArgListE
__ZN3JSC7JSArrayC1EN3WTF17NonNullPassRefPtrINS_9StructureEEEj
__ZN3JSC17RegExpConstructor3putEPNS_9ExecStateERKNS_10IdentifierENS_7JSValueERNS_15PutPropertySlotE
__ZN3JSC9lookupPutINS_17RegExpConstructorEEEbPNS_9ExecStateERKNS_10IdentifierENS_7JSValueEPKNS_9HashTableEPT_
__ZN3JSC8NullNode12emitBytecodeERNS_17BytecodeGeneratorEPNS_10RegisterIDE
__ZN3JSC6JSCell11getCallDataERNS_8CallDataE
__ZN3JSC10JSFunction3putEPNS_9ExecStateERKNS_10IdentifierENS_7JSValueERNS_15PutPropertySlotE
__ZN3JSC7JSArrayC1EN3WTF17NonNullPassRefPtrINS_9StructureEEERKNS_7ArgListE
__ZN3JSC7JSArray18getOwnPropertySlotEPNS_9ExecStateERKNS_10IdentifierERNS_12PropertySlotE
__ZN3JSC14ArrayPrototype18getOwnPropertySlotEPNS_9ExecStateERKNS_10IdentifierERNS_12PropertySlotE
__ZN3JSCL18arrayProtoFuncPushEPNS_9ExecStateEPNS_8JSObjectENS_7JSValueERKNS_7ArgListE
__ZN3JSC7JSArray4pushEPNS_9ExecStateENS_7JSValueE
__ZN3JSC7JSArray20increaseVectorLengthEj
__ZN3WTF14tryFastReallocEPvm
__ZN3WTF11fastReallocILb0EEEPvS1_m
__ZN3WTF6VectorIN3JSC10IdentifierELm20EE15reserveCapacityEm
__ZN3JSC12StringObject3putEPNS_9ExecStateERKNS_10IdentifierENS_7JSValueERNS_15PutPropertySlotE
__ZN3JSC11Interpreter7resolveEPNS_9ExecStateEPNS_11InstructionERNS_7JSValueE
__ZN3JSC11Interpreter14uncacheGetByIDEPNS_9CodeBlockEPNS_11InstructionE
__ZN3JSC7JSArray3putEPNS_9ExecStateERKNS_10IdentifierENS_7JSValueERNS_15PutPropertySlotE
__ZN3JSC17NumberConstructor18getOwnPropertySlotEPNS_9ExecStateERKNS_10IdentifierERNS_12PropertySlotE
__ZN3JSC18getStaticValueSlotINS_17NumberConstructorENS_16InternalFunctionEEEbPNS_9ExecStateEPKNS_9HashTableEPT_RKNS_10IdentifierERNS_12PropertySlotE
__ZNK3JSC8JSString12toThisObjectEPNS_9ExecStateE
__ZN3JSC12StringObjectC1EN3WTF17NonNullPassRefPtrINS_9StructureEEEPNS_8JSStringE
__ZN3JSCL22stringProtoFuncReplaceEPNS_9ExecStateEPNS_8JSObjectENS_7JSValueERKNS_7ArgListE
__ZN3JSC6JSCell14toThisJSStringEPNS_9ExecStateE
__ZNK3JSC6JSCell12toThisStringEPNS_9ExecStateE
__ZNK3JSC8JSObject8toStringEPNS_9ExecStateE
__ZNK3JSC8JSObject11toPrimitiveEPNS_9ExecStateENS_22PreferredPrimitiveTypeE
__ZNK3JSC8JSObject12defaultValueEPNS_9ExecStateENS_22PreferredPrimitiveTypeE
__ZNK3JSC8JSObject3getEPNS_9ExecStateERKNS_10IdentifierE
__ZN3JSC4callEPNS_9ExecStateENS_7JSValueENS_8CallTypeERKNS_8CallDataES2_RKNS_7ArgListE
__ZN3JSCL23stringProtoFuncToStringEPNS_9ExecStateEPNS_8JSObjectENS_7JSValueERKNS_7ArgListE
__ZNK3JSC12StringObject9classInfoEv
__ZN3JSC8JSString14toThisJSStringEPNS_9ExecStateE
__ZN3JSCL20stringProtoFuncSplitEPNS_9ExecStateEPNS_8JSObjectENS_7JSValueERKNS_7ArgListE
__ZN3JSC7JSArray3putEPNS_9ExecStateEjNS_7JSValueE
__ZN3JSC7JSArray11putSlowCaseEPNS_9ExecStateEjNS_7JSValueE
__ZN3JSC7TryNode12emitBytecodeERNS_17BytecodeGeneratorEPNS_10RegisterIDE
__ZN3JSC17BytecodeGenerator9emitCatchEPNS_10RegisterIDEPNS_5LabelES4_
__ZN3JSC9CodeBlock19addExceptionHandlerERKNS_11HandlerInfoE
__ZN3WTF6VectorIN3JSC11HandlerInfoELm0EE14expandCapacityEmPKS2_
__ZN3JSC17BytecodeGenerator16emitPushNewScopeEPNS_10RegisterIDERKNS_10IdentifierES2_
__ZNK3JSC9CommaNode11isCommaNodeEv
__ZN3JSC9CommaNode6appendEPNS_14ExpressionNodeE
__ZN3JSCL21arrayProtoFuncForEachEPNS_9ExecStateEPNS_8JSObjectENS_7JSValueERKNS_7ArgListE
__ZN3JSC11Interpreter20prepareForRepeatCallEPNS_18FunctionExecutableEPNS_9ExecStateEPNS_10JSFunctionEiPNS_14ScopeChainNodeEPNS_7JSValueE
__ZN3JSC17BytecodeGenerator11emitPostIncEPNS_10RegisterIDES2_
__ZN3JSC11Interpreter7executeERNS_16CallFrameClosureEPNS_7JSValueE
__ZN3JSC10MathObject18getOwnPropertySlotEPNS_9ExecStateERKNS_10IdentifierERNS_12PropertySlotE
__ZN3JSC21getStaticFunctionSlotINS_8JSObjectEEEbPNS_9ExecStateEPKNS_9HashTableEPS1_RKNS_10IdentifierERNS_12PropertySlotE
__ZNK3JSC21UntypedPtrAndBitfieldanEm
__ZN3JSC11Interpreter13endRepeatCallERNS_16CallFrameClosureE
__ZN3JSC14LogicalNotNode30emitBytecodeInConditionContextERNS_17BytecodeGeneratorEPNS_5LabelES4_b
__ZN3JSCL19arrayProtoFuncShiftEPNS_9ExecStateEPNS_8JSObjectENS_7JSValueERKNS_7ArgListE
__ZN3JSC7JSArray18getOwnPropertySlotEPNS_9ExecStateEjRNS_12PropertySlotE
__ZN3JSC7JSArray14deletePropertyEPNS_9ExecStateEj
__ZN3JSC7JSArray9setLengthEj
__ZN3JSC10JSFunction16getConstructDataERNS_13ConstructDataE
__ZN3JSCL25functionProtoFuncToStringEPNS_9ExecStateEPNS_8JSObjectENS_7JSValueERKNS_7ArgListE
__ZNK3JSC10JSFunction9classInfoEv
__ZNK3JSC7UStringixEi
__ZNK3JSC18FunctionExecutable11paramStringEv
__ZN3WTF6VectorItLm64EE6appendIcEEvPKT_m
__ZN3JSC13StringBuilder7releaseEv
__ZN3JSC10makeStringIPKcNS_7UStringES2_S3_S2_S3_EES3_T_T0_T1_T2_T3_T4_
__ZN3JSC18RegExpMatchesArray18getOwnPropertySlotEPNS_9ExecStateEjRNS_12PropertySlotE
__ZN3JSC7JSArray16lazyCreationDataEv
__ZN3JSC18RegExpMatchesArray17fillArrayInstanceEPNS_9ExecStateE
__ZN3JSC24RegExpConstructorPrivateD1Ev
__ZN3JSCL19arrayProtoFuncSliceEPNS_9ExecStateEPNS_8JSObjectENS_7JSValueERKNS_7ArgListE
__ZNK3JSC7JSValue9toIntegerEPNS_9ExecStateE
__ZN3JSC24ApplyFunctionCallDotNode12emitBytecodeERNS_17BytecodeGeneratorEPNS_10RegisterIDE
__ZNK3JSC14ExpressionNode13isSimpleArrayEv
__ZN3JSC17BytecodeGenerator26emitJumpIfNotFunctionApplyEPNS_10RegisterIDEPNS_5LabelE
__ZN3JSC17BytecodeGenerator22willResolveToArgumentsERKNS_10IdentifierE
__ZN3JSC17BytecodeGenerator15emitLoadVarargsEPNS_10RegisterIDES2_
__ZN3JSC17BytecodeGenerator15emitCallVarargsEPNS_10RegisterIDES2_S2_S2_jjj
__ZNK3JSC7JSArray9classInfoEv
__ZN3JSC7JSArray15copyToRegistersEPNS_9ExecStateEPNS_8RegisterEj
__ZNK3JSC7UString30spliceSubstringsWithSeparatorsEPKNS0_5RangeEiPKS0_i
__ZN3JSC4Heap15recordExtraCostEm
__ZNK3JSC8JSObject3getEPNS_9ExecStateEj
__ZN3JSC4Heap9markRootsEv
__ZN3JSC4Heap30markStackObjectsConservativelyERNS_9MarkStackE
__ZN3JSC4Heap31markCurrentThreadConservativelyERNS_9MarkStackE
__ZN3JSC4Heap39markCurrentThreadConservativelyInternalERNS_9MarkStackE
__ZN3JSC4Heap18markConservativelyERNS_9MarkStackEPvS3_
__ZN3JSC9MarkStack5drainEv
__ZN3JSC9MarkStack12markChildrenEPNS_6JSCellE
__ZN3JSC8JSObject12markChildrenERNS_9MarkStackE
__ZN3JSC14JSGlobalObject12markChildrenERNS_9MarkStackE
__ZN3JSC9CodeBlock13markAggregateERNS_9MarkStackE
__ZN3JSC18FunctionExecutable13markAggregateERNS_9MarkStackE
__ZN3JSC10JSFunction12markChildrenERNS_9MarkStackE
__ZN3JSC7JSArray12markChildrenERNS_9MarkStackE
__ZN3JSC7JSArray18markChildrenDirectERNS_9MarkStackE
__ZN3JSC15JSWrapperObject12markChildrenERNS_9MarkStackE
__ZN3JSC18GlobalEvalFunction12markChildrenERNS_9MarkStackE
__ZN3JSC12JSActivation12markChildrenERNS_9MarkStackE
__ZN3JSC9Arguments12markChildrenERNS_9MarkStackE
__ZN3JSCL12markIfNeededERNS_9MarkStackENS_7JSValueE
__ZN3JSC4Heap20markProtectedObjectsERNS_9MarkStackE
__ZN3JSC22JSPropertyNameIterator12markChildrenERNS_9MarkStackE
__ZN3JSC12SmallStrings12markChildrenERNS_9MarkStackE
__ZN3JSC9MarkStack7compactEv
__ZN3JSC4Heap12resizeBlocksEv
__ZNK3JSC4Heap11markedCellsEmm
__ZN3JSC17PrototypeFunctionD1Ev
__ZN3JSC12RegExpObjectD1Ev
__ZN3JSC12JSActivationD1Ev
__ZN3JSC12JSActivation16JSActivationDataD1Ev
__ZN3JSC16JSVariableObjectD2Ev
__ZN3JSC9ArgumentsD1Ev
__ZN3JSC9ArgumentsD2Ev
__ZN3JSC18RegExpMatchesArrayD1Ev
__ZN3JSC8JSObjectD1Ev
__ZN3JSC12StringObjectD1Ev
__ZN3JSC15JSWrapperObjectD2Ev
__ZN3JSCL19isInvalidParamForInEPNS_9ExecStateEPNS_9CodeBlockEPKNS_11InstructionENS_7JSValueERS7_
__ZN3JSC15IdentifierArena21makeNumericIdentifierEPNS_12JSGlobalDataEd
__ZN3JSC7UString4fromEd
__ZN3WTF32doubleToStringInJavaScriptFormatEdPcPj
__ZN3JSC7UStringC1EPKci
__ZN3WTF4dtoaEPcdiPiS1_PS0_
__ZN3JSC12ContinueNode12emitBytecodeERNS_17BytecodeGeneratorEPNS_10RegisterIDE
__ZN3JSC17BytecodeGenerator14continueTargetERKNS_10IdentifierE
__ZN3JSC13DeleteDotNode12emitBytecodeERNS_17BytecodeGeneratorEPNS_10RegisterIDE
__ZN3JSC17BytecodeGenerator14emitDeleteByIdEPNS_10RegisterIDES2_RKNS_10IdentifierE
__ZN3JSC10JSFunction14deletePropertyEPNS_9ExecStateERKNS_10IdentifierE
__ZN3JSC8JSObject14deletePropertyEPNS_9ExecStateERKNS_10IdentifierE
__ZNK3JSC7ArgList8getSliceEiRS0_
__ZN3JSC9Arguments13copyRegistersEv
__ZN3JSCL22arrayProtoFuncToStringEPNS_9ExecStateEPNS_8JSObjectENS_7JSValueERKNS_7ArgListE
__ZN3WTF9HashTableIPN3JSC8JSObjectES3_NS_17IdentityExtractorIS3_EENS_7PtrHashIS3_EENS_10HashTraitsIS3_EES9_E3addIS3_S3_NS_22IdentityHashTranslatorIS3_S3_S7_EEEESt4pairINS_17HashTableIteratorIS3_S3_S5_S7_S9_S9_EEbERKT_RKT0_
__ZN3WTF9HashTableIPN3JSC8JSObjectES3_NS_17IdentityExtractorIS3_EENS_7PtrHashIS3_EENS_10HashTraitsIS3_EES9_E6rehashEi
__ZN3JSC14NumericStrings3addEi
__ZN3JSC7UString4fromEi
__ZN3WTF9HashTableIPN3JSC8JSObjectES3_NS_17IdentityExtractorIS3_EENS_7PtrHashIS3_EENS_10HashTraitsIS3_EES9_E4findIS3_NS_22IdentityHashTranslatorIS3_S3_S7_EEEENS_17HashTableIteratorIS3_S3_S5_S7_S9_S9_EERKT_
__ZN3JSCL21arrayProtoFuncIndexOfEPNS_9ExecStateEPNS_8JSObjectENS_7JSValueERKNS_7ArgListE
__ZN3JSC16ErrorConstructor16getConstructDataERNS_13ConstructDataE
__ZN3JSCL29constructWithErrorConstructorEPNS_9ExecStateEPNS_8JSObjectERKNS_7ArgListE
__ZN3JSC14constructErrorEPNS_9ExecStateERKNS_7ArgListE
__ZN3JSC13ErrorInstanceC1EN3WTF17NonNullPassRefPtrINS_9StructureEEE
__ZN3JSC10JSFunction4callEPNS_9ExecStateENS_7JSValueERKNS_7ArgListE
__ZN3JSC11Interpreter7executeEPNS_18FunctionExecutableEPNS_9ExecStateEPNS_10JSFunctionEPNS_8JSObjectERKNS_7ArgListEPNS_14ScopeChainNodeEPNS_7JSValueE
__ZN3WTF10RefCountedIN3JSC14StructureChainEE5derefEv
__ZN3JSC15TypeOfValueNode12emitBytecodeERNS_17BytecodeGeneratorEPNS_10RegisterIDE
__ZN3JSC20jsTypeStringForValueEPNS_9ExecStateENS_7JSValueE
__ZNK3JSC8JSString8toNumberEPNS_9ExecStateE
__ZNK3JSC7UString8toDoubleEv
__ZN3JSC17BytecodeGenerator19emitResolveWithBaseEPNS_10RegisterIDES2_RKNS_10IdentifierE
__ZN3JSC17RegExpConstructor16getConstructDataERNS_13ConstructDataE
__ZN3JSCL30constructWithRegExpConstructorEPNS_9ExecStateEPNS_8JSObjectERKNS_7ArgListE
__ZN3JSC15constructRegExpEPNS_9ExecStateERKNS_7ArgListE
__ZN3JSC18globalFuncUnescapeEPNS_9ExecStateEPNS_8JSObjectENS_7JSValueERKNS_7ArgListE
__ZN3WTF6VectorItLm64EE14expandCapacityEmPKt
__ZN3WTF6VectorIPN3JSC14ExpressionNodeELm8EE14expandCapacityEmPKS3_
__ZN3JSC8JSObject18getOwnPropertySlotEPNS_9ExecStateERKNS_10IdentifierERNS_12PropertySlotE
__ZN3JSC8JSObject3putEPNS_9ExecStateEjNS_7JSValueE
__ZL11makeDivNodePN3JSC12JSGlobalDataEPNS_14ExpressionNodeES3_b
__ZNK3JSC8NullNode6isNullEv
__ZN3JSC21ReadModifyResolveNode12emitBytecodeERNS_17BytecodeGeneratorEPNS_10RegisterIDE
__ZN3JSC15DateConstructor16getConstructDataERNS_13ConstructDataE
__ZN3JSCL28constructWithDateConstructorEPNS_9ExecStateEPNS_8JSObjectERKNS_7ArgListE
__ZN3JSC13constructDateEPNS_9ExecStateERKNS_7ArgListE
__ZN3JSC12DateInstanceC1EPNS_9ExecStateEd
__ZN3WTF8timeClipEd
__ZN3JSC13DatePrototype18getOwnPropertySlotEPNS_9ExecStateERKNS_10IdentifierERNS_12PropertySlotE
__ZN3JSCL19dateProtoFuncGetDayEPNS_9ExecStateEPNS_8JSObjectENS_7JSValueERKNS_7ArgListE
__ZNK3JSC12DateInstance9classInfoEv
__ZNK3JSC12DateInstance26calculateGregorianDateTimeEPNS_9ExecStateE
__ZN3JSC17DateInstanceCache3addEd
__ZN3JSC21msToGregorianDateTimeEPNS_9ExecStateEdbRNS_17GregorianDateTimeE
__ZN3JSC12getUTCOffsetEPNS_9ExecStateE
__ZN3JSCL12getDSTOffsetEPNS_9ExecStateEdd
__ZN3WTFL18calculateDSTOffsetEdd
__ZN3WTF23dayInMonthFromDayInYearEib
__ZN3JSCL21dateProtoFuncGetHoursEPNS_9ExecStateEPNS_8JSObjectENS_7JSValueERKNS_7ArgListE
__ZN3JSCL23dateProtoFuncGetMinutesEPNS_9ExecStateEPNS_8JSObjectENS_7JSValueERKNS_7ArgListE
__ZN3JSCL30dateProtoFuncGetTimezoneOffsetEPNS_9ExecStateEPNS_8JSObjectENS_7JSValueERKNS_7ArgListE
__ZN3JSCL26stringProtoFuncToLowerCaseEPNS_9ExecStateEPNS_8JSObjectENS_7JSValueERKNS_7ArgListE
__ZN3JSCL19mathProtoFuncRandomEPNS_9ExecStateEPNS_8JSObjectENS_7JSValueERKNS_7ArgListE
__ZN3JSC14NumericStrings3addEd
__ZN3WTFL4multERNS_6BigIntERKS0_
__ZN3WTF6VectorIjLm16EEaSERKS1_
__ZN3WTF6BigInt6appendEj
__ZN3JSC8JSString4Rope20destructNonRecursiveEv
__ZNK3JSC19JSStaticScopeObject14isDynamicScopeEv
__ZN3JSC17ReadModifyDotNode12emitBytecodeERNS_17BytecodeGeneratorEPNS_10RegisterIDE
__ZN3JSC18BooleanConstructor11getCallDataERNS_8CallDataE
__ZN3JSCL22callBooleanConstructorEPNS_9ExecStateEPNS_8JSObjectENS_7JSValueERKNS_7ArgListE
__ZL17bracketIsAnchoredPKh
__ZN3JSCL18arrayProtoFuncJoinEPNS_9ExecStateEPNS_8JSObjectENS_7JSValueERKNS_7ArgListE
__ZN3WTF6VectorItLm256EE14expandCapacityEmPKt
__ZN3JSC19FunctionConstructor16getConstructDataERNS_13ConstructDataE
__ZN3JSCL32constructWithFunctionConstructorEPNS_9ExecStateEPNS_8JSObjectERKNS_7ArgListE
__ZN3JSC17constructFunctionEPNS_9ExecStateERKNS_7ArgListE
__ZN3JSC17constructFunctionEPNS_9ExecStateERKNS_7ArgListERKNS_10IdentifierERKNS_7UStringEi
__ZN3JSC12JSActivation18getOwnPropertySlotEPNS_9ExecStateERKNS_10IdentifierERNS_12PropertySlotE
__ZN3JSC10SwitchNode12emitBytecodeERNS_17BytecodeGeneratorEPNS_10RegisterIDE
__ZN3JSC13CaseBlockNode20emitBytecodeForBlockERNS_17BytecodeGeneratorEPNS_10RegisterIDES4_
__ZN3JSC13CaseBlockNode18tryOptimizedSwitchERN3WTF6VectorIPNS_14ExpressionNodeELm8EEERiS7_
__ZN3JSCL17processClauseListEPNS_14ClauseListNodeERN3WTF6VectorIPNS_14ExpressionNodeELm8EEERNS_10SwitchKindERbRiSB_
__ZN3JSC17BytecodeGenerator11beginSwitchEPNS_10RegisterIDENS_10SwitchInfo10SwitchTypeE
__ZN3WTF6VectorIN3JSC10SwitchInfoELm0EE14expandCapacityEm
__ZN3WTF6VectorISt4pairIiiELm8EE14expandCapacityEmPKS2_
__ZN3JSC17BytecodeGenerator9endSwitchEjPN3WTF6RefPtrINS_5LabelEEEPPNS_14ExpressionNodeEPS3_ii
__ZN3JSC9CodeBlock24addStringSwitchJumpTableEv
__ZN3WTF6VectorIN3JSC15StringJumpTableELm0EE14expandCapacityEmPKS2_
__ZN3WTF11VectorMoverILb0EN3JSC15StringJumpTableEE4moveEPKS2_S5_PS2_
__ZN3WTF9HashTableINS_6RefPtrIN3JSC11UStringImplEEESt4pairIS4_NS2_14OffsetLocationEENS_18PairFirstExtractorIS7_EENS_7StrHashIS4_EENS_14PairHashTraitsINS_10HashTraitsIS4_EENSD_IS6_EEEESE_E6rehashEi
__ZN3WTF9HashTableINS_6RefPtrIN3JSC11UStringImplEEESt4pairIS4_NS2_14OffsetLocationEENS_18PairFirstExtractorIS7_EENS_7StrHashIS4_EENS_14PairHashTraitsINS_10HashTraitsIS4_EENSD_IS6_EEEESE_E4findIS4_NS_22IdentityHashTranslatorIS4_S7_SB_EEEENS_17HashTableIteratorIS4_S7_S9_SB_SG_SE_EERKT_
__ZN3WTF9HashTableINS_6RefPtrIN3JSC11UStringImplEEESt4pairIS4_NS2_14OffsetLocationEENS_18PairFirstExtractorIS7_EENS_7StrHashIS4_EENS_14PairHashTraitsINS_10HashTraitsIS4_EENSD_IS6_EEEESE_E3addIS4_S7_NS_22IdentityHashTranslatorIS4_S7_SB_EEEES5_INS_17HashTableIteratorIS4_S7_S9_SB_SG_SE_EEbERKT_RKT0_
__ZN3WTF9HashTableINS_6RefPtrIN3JSC11UStringImplEEESt4pairIS4_NS2_14OffsetLocationEENS_18PairFirstExtractorIS7_EENS_7StrHashIS4_EENS_14PairHashTraitsINS_10HashTraitsIS4_EENSD_IS6_EEEESE_E3addIPS3_S6_NS_29RefPtrHashMapRawKeyTranslatorISJ_S7_SG_SB_EEEES5_INS_17HashTableIteratorIS4_S7_S9_SB_SG_SE_EEbERKT_RKT0_
__ZN3JSC15StringJumpTable14offsetForValueEPNS_11UStringImplEi
__ZN3JSC28globalFuncEncodeURIComponentEPNS_9ExecStateEPNS_8JSObjectENS_7JSValueERKNS_7ArgListE
__ZN3JSCL6encodeEPNS_9ExecStateERKNS_7ArgListEPKc
__ZNK3JSC7UString10UTF8StringEb
__ZN3WTF7Unicode18convertUTF16ToUTF8EPPKtS2_PPcS4_b
__ZN3JSC7CStringD1Ev
__ZN3WTF6VectorIPN3JSC14ExpressionNodeELm16EE14expandCapacityEmPKS3_
__ZN3JSC8jsLessEqEPNS_9ExecStateENS_7JSValueES2_
__ZN3WTF6VectorIN3JSC8JSString4Rope5FiberELm32EE14expandCapacityEm
__ZL12makeMultNodePN3JSC12JSGlobalDataEPNS_14ExpressionNodeES3_b
__ZN3JSCL17mathProtoFuncCeilEPNS_9ExecStateEPNS_8JSObjectENS_7JSValueERKNS_7ArgListE
__ZNK3JSC7JSValue17toPrimitiveStringEPNS_9ExecStateE
__ZN3JSC14jsIsObjectTypeENS_7JSValueE
__ZN3JSCL20arrayProtoFuncConcatEPNS_9ExecStateEPNS_8JSObjectENS_7JSValueERKNS_7ArgListE
__ZN3JSC18RegExpMatchesArray18getOwnPropertySlotEPNS_9ExecStateERKNS_10IdentifierERNS_12PropertySlotE
__ZN3JSCL20stringProtoFuncSliceEPNS_9ExecStateEPNS_8JSObjectENS_7JSValueERKNS_7ArgListE
__ZN3JSC17StringConstructor11getCallDataERNS_8CallDataE
__ZN3JSCL21callStringConstructorEPNS_9ExecStateEPNS_8JSObjectENS_7JSValueERKNS_7ArgListE
__ZN3JSC17BytecodeGenerator29uncheckedRegisterForArgumentsEv
__ZN3JSC23FunctionCallBracketNode12emitBytecodeERNS_17BytecodeGeneratorEPNS_10RegisterIDE
__ZN3JSC20EvalFunctionCallNode12emitBytecodeERNS_17BytecodeGeneratorEPNS_10RegisterIDE
__ZN3JSC17BytecodeGenerator12emitCallEvalEPNS_10RegisterIDES2_S2_PNS_13ArgumentsNodeEjjj
__ZN3JSCL26stringProtoFuncToUpperCaseEPNS_9ExecStateEPNS_8JSObjectENS_7JSValueERKNS_7ArgListE
__ZNK3JSC7UString12replaceRangeEiiRKS0_
__ZN3JSCL19regExpProtoFuncExecEPNS_9ExecStateEPNS_8JSObjectENS_7JSValueERKNS_7ArgListE
__ZN3JSC12RegExpObject4execEPNS_9ExecStateERKNS_7ArgListE
__ZN3WTF37parseDateFromNullTerminatedCharactersEPKc
__ZN3WTFL37parseDateFromNullTerminatedCharactersEPKcRbRi
__ZN3JSC14InstanceOfNode12emitBytecodeERNS_17BytecodeGeneratorEPNS_10RegisterIDE
__ZN3JSC17BytecodeGenerator14emitInstanceOfEPNS_10RegisterIDES2_S2_S2_
__ZN3JSCL27isInvalidParamForInstanceOfEPNS_9ExecStateEPNS_9CodeBlockEPKNS_11InstructionENS_7JSValueERS7_
__ZN3JSC8JSObject11hasInstanceEPNS_9ExecStateENS_7JSValueES3_
__ZN3JSC19JSStaticScopeObject12markChildrenERNS_9MarkStackE
__ZN3JSC22JSPropertyNameIteratorD1Ev
__ZN3WTF21CrossThreadRefCountedINS_16OwnFastMallocPtrItEEE5derefEv
__ZN3JSC9parseDateEPNS_9ExecStateERKNS_7UStringE
__ZN3JSC37parseDateFromNullTerminatedCharactersEPNS_9ExecStateEPKc
__ZN3JSCL21dateProtoFuncSetHoursEPNS_9ExecStateEPNS_8JSObjectENS_7JSValueERKNS_7ArgListE
__ZN3JSCL23setNewValueFromTimeArgsEPNS_9ExecStateENS_7JSValueERKNS_7ArgListEib
__ZN3JSC21gregorianDateTimeToMSEPNS_9ExecStateERKNS_17GregorianDateTimeEdb
__ZN3JSCL20dateProtoFuncGetTimeEPNS_9ExecStateEPNS_8JSObjectENS_7JSValueERKNS_7ArgListE
__ZN3JSCL18mathProtoFuncRoundEPNS_9ExecStateEPNS_8JSObjectENS_7JSValueERKNS_7ArgListE
__ZN3JSC13jsAddSlowCaseEPNS_9ExecStateENS_7JSValueES2_
__ZN3JSCL18mathProtoFuncFloorEPNS_9ExecStateEPNS_8JSObjectENS_7JSValueERKNS_7ArgListE
__ZN3JSC18globalFuncParseIntEPNS_9ExecStateEPNS_8JSObjectENS_7JSValueERKNS_7ArgListE
__ZN3JSC15toInt32SlowCaseEdRb
__ZN3JSC12DateInstanceD1Ev
__ZNK3JSC7JSValue20toThisObjectSlowCaseEPNS_9ExecStateE
__ZN3JSC20globalFuncParseFloatEPNS_9ExecStateEPNS_8JSObjectENS_7JSValueERKNS_7ArgListE
__ZN3JSC15globalFuncIsNaNEPNS_9ExecStateEPNS_8JSObjectENS_7JSValueERKNS_7ArgListE
__ZN3JSCL24stringProtoFuncSubstringEPNS_9ExecStateEPNS_8JSObjectENS_7JSValueERKNS_7ArgListE
__ZN3JSCL29objectProtoFuncHasOwnPropertyEPNS_9ExecStateEPNS_8JSObjectENS_7JSValueERKNS_7ArgListE
__ZNK3JSC8JSObject14hasOwnPropertyEPNS_9ExecStateERKNS_10IdentifierE
__ZN3JSC9CodeBlock27addImmediateSwitchJumpTableEv
__ZN3WTF6VectorIN3JSC15SimpleJumpTableELm0EE15reserveCapacityEm
__ZN3WTF6VectorIiLm0EE4fillERKim
__ZN3JSC15SimpleJumpTable14offsetForValueEii
__ZN3JSC11Interpreter22resolveBaseAndPropertyEPNS_9ExecStateEPNS_11InstructionERNS_7JSValueE
__ZN3JSCL24regExpConstructorDollar2EPNS_9ExecStateERKNS_10IdentifierERKNS_12PropertySlotE
__ZN3JSCL24regExpConstructorDollar3EPNS_9ExecStateERKNS_10IdentifierERKNS_12PropertySlotE
__ZN3JSCL24regExpConstructorDollar4EPNS_9ExecStateERKNS_10IdentifierERKNS_12PropertySlotE
__ZNK3JSC11Interpreter18retrieveLastCallerEPNS_9ExecStateERiRlRNS_7UStringERNS_7JSValueE
__ZN3JSC9CodeBlock27lineNumberForBytecodeOffsetEPNS_9ExecStateEj
__ZN3JSC9CodeBlock34reparseForExceptionInfoIfNecessaryEPNS_9ExecStateE
__ZN3JSC18FunctionExecutable20reparseExceptionInfoEPNS_12JSGlobalDataEPNS_14ScopeChainNodeEPNS_9CodeBlockE
__ZN3WTF6OwnPtrIN3JSC13ExceptionInfoEE3setEPS2_
__ZN3JSC28globalFuncDecodeURIComponentEPNS_9ExecStateEPNS_8JSObjectENS_7JSValueERKNS_7ArgListE
__ZN3JSCL6decodeEPNS_9ExecStateERKNS_7ArgListEPKcb
__ZN3JSC17PrefixResolveNode12emitBytecodeERNS_17BytecodeGeneratorEPNS_10RegisterIDE
__ZN3JSC21ReadModifyBracketNode12emitBytecodeERNS_17BytecodeGeneratorEPNS_10RegisterIDE
__ZL17makeLeftShiftNodePN3JSC12JSGlobalDataEPNS_14ExpressionNodeES3_b
__ZL18makeRightShiftNodePN3JSC12JSGlobalDataEPNS_14ExpressionNodeES3_b
__ZN3JSC17BytecodeGenerator10emitPreDecEPNS_10RegisterIDE
__ZN3JSCL25stringProtoFuncCharCodeAtEPNS_9ExecStateEPNS_8JSObjectENS_7JSValueERKNS_7ArgListE
__ZN3JSC11DoWhileNode12emitBytecodeERNS_17BytecodeGeneratorEPNS_10RegisterIDE
__ZN3JSCL16mathProtoFuncMaxEPNS_9ExecStateEPNS_8JSObjectENS_7JSValueERKNS_7ArgListE
__ZN3JSCL8parseIntERKNS_7UStringEi
__ZN3JSC10JSONObject18getOwnPropertySlotEPNS_9ExecStateERKNS_10IdentifierERNS_12PropertySlotE
__ZN3JSCL22JSONProtoFuncStringifyEPNS_9ExecStateEPNS_8JSObjectENS_7JSValueERKNS_7ArgListE
__ZN3JSC11StringifierC2EPNS_9ExecStateENS_7JSValueES3_
__ZN3JSCL20unwrapBoxedPrimitiveEPNS_9ExecStateENS_7JSValueE
__ZN3JSC11Stringifier9stringifyENS_7JSValueE
__ZN3JSC11Stringifier22appendStringifiedValueERNS_13StringBuilderENS_7JSValueEPNS_8JSObjectERKNS_27PropertyNameForFunctionCallE
__ZN3JSC11Stringifier6toJSONENS_7JSValueERKNS_27PropertyNameForFunctionCallE
__ZNK3JSC6JSCell9getStringEPNS_9ExecStateERNS_7UStringE
__ZN3JSC11Stringifier6Holder18appendNextPropertyERS0_RNS_13StringBuilderE
__ZN3JSC11Stringifier6indentEv
__ZNK3JSC7UString6substrEii
__ZNK3JSC11Stringifier12startNewLineERNS_13StringBuilderE
__ZN3JSC11Stringifier18appendQuotedStringERNS_13StringBuilderERKNS_7UStringE
__ZN3JSC11Stringifier8unindentEv
__ZN3JSC11StringifierD2Ev
__ZNK3JSC7JSValue19synthesizePrototypeEPNS_9ExecStateE
__ZN3JSC26createNotAnObjectErrorStubEPNS_9ExecStateEb
__ZN3JSC13JSNotAnObject18getOwnPropertySlotEPNS_9ExecStateERKNS_10IdentifierERNS_12PropertySlotE
__ZN3JSC11Interpreter14throwExceptionERPNS_9ExecStateERNS_7JSValueEjb
__ZNK3JSC22JSNotAnObjectErrorStub22isNotAnObjectErrorStubEv
__ZN3JSC22createNotAnObjectErrorEPNS_9ExecStateEPNS_22JSNotAnObjectErrorStubEjPNS_9CodeBlockE
__ZN3JSC9CodeBlock37getByIdExceptionInfoForBytecodeOffsetEPNS_9ExecStateEjRNS_8OpcodeIDE
__ZNK3JSC10ScopeChain10localDepthEv
__ZNK3JSC12JSActivation9classInfoEv
__ZN3JSC9CodeBlock43hasGlobalResolveInstructionAtBytecodeOffsetEj
__ZN3JSC9CodeBlock32expressionRangeForBytecodeOffsetEPNS_9ExecStateEjRiS3_S3_
__ZN3JSCL18createErrorMessageEPNS_9ExecStateEPNS_9CodeBlockEiiiNS_7JSValueENS_7UStringE
__ZN3JSC10makeStringIPKcNS_7UStringES2_S3_S2_S3_S2_EES3_T_T0_T1_T2_T3_T4_T5_
__ZN3JSC5Error6createEPNS_9ExecStateENS_9ErrorTypeERKNS_7UStringEilS6_
__ZN3JSC22NativeErrorConstructor16getConstructDataERNS_13ConstructDataE
__ZN3JSC9constructEPNS_9ExecStateENS_7JSValueENS_13ConstructTypeERKNS_13ConstructDataERKNS_7ArgListE
__ZN3JSCL35constructWithNativeErrorConstructorEPNS_9ExecStateEPNS_8JSObjectERKNS_7ArgListE
__ZN3JSC22NativeErrorConstructor9constructEPNS_9ExecStateERKNS_7ArgListE
__ZN3JSC8JSObject17putWithAttributesEPNS_9ExecStateERKNS_10IdentifierENS_7JSValueEj
__ZN3JSC20MarkedArgumentBufferD1Ev
__ZN3JSC9CodeBlock24handlerForBytecodeOffsetEj
__ZN3JSC11Interpreter20createExceptionScopeEPNS_9ExecStateEPKNS_11InstructionE
__ZN3JSCL20dateProtoFuncSetTimeEPNS_9ExecStateEPNS_8JSObjectENS_7JSValueERKNS_7ArgListE
__ZN3JSCL21dateProtoFuncGetMonthEPNS_9ExecStateEPNS_8JSObjectENS_7JSValueERKNS_7ArgListE
__ZN3JSCL20dateProtoFuncGetYearEPNS_9ExecStateEPNS_8JSObjectENS_7JSValueERKNS_7ArgListE
__ZN3JSC16globalFuncEscapeEPNS_9ExecStateEPNS_8JSObjectENS_7JSValueERKNS_7ArgListE
__ZN3JSCL24dateProtoFuncToGMTStringEPNS_9ExecStateEPNS_8JSObjectENS_7JSValueERKNS_7ArgListE
__ZNK3JSC12DateInstance29calculateGregorianDateTimeUTCEPNS_9ExecStateE
__ZN3JSC20formatDateUTCVariantERKNS_17GregorianDateTimeERA100_c
__ZN3JSC13formatTimeUTCERKNS_17GregorianDateTimeERA100_c
__ZN3JSC10makeStringIPcPKcS1_EENS_7UStringET_T0_T1_
__ZN3JSC18jsNontrivialStringEPNS_12JSGlobalDataERKNS_7UStringE
__ZN3JSCL23numberProtoFuncToStringEPNS_9ExecStateEPNS_8JSObjectENS_7JSValueERKNS_7ArgListE
__ZN3JSC14PostfixDotNode12emitBytecodeERNS_17BytecodeGeneratorEPNS_10RegisterIDE
__ZN3JSCL22objectProtoFuncValueOfEPNS_9ExecStateEPNS_8JSObjectENS_7JSValueERKNS_7ArgListE
__ZN3JSC17ObjectConstructor16getConstructDataERNS_13ConstructDataE
__ZN3JSCL30constructWithObjectConstructorEPNS_9ExecStateEPNS_8JSObjectERKNS_7ArgListE
__ZN3WTF9HashTableIdSt4pairIdN3JSC7JSValueEENS_18PairFirstExtractorIS4_EENS_9FloatHashIdEENS_14PairHashTraitsINS_10HashTraitsIdEENSA_IS3_EEEESB_E4findIdNS_22IdentityHashTranslatorIdS4_S8_EEEENS_17HashTableIteratorIdS4_S6_S8_SD_SB_EERKT_
__ZN3WTF9HashTableIdSt4pairIdN3JSC7JSValueEENS_18PairFirstExtractorIS4_EENS_9FloatHashIdEENS_14PairHashTraitsINS_10HashTraitsIdEENSA_IS3_EEEESB_E6rehashEi
__ZN3WTF9HashTableIdSt4pairIdN3JSC7JSValueEENS_18PairFirstExtractorIS4_EENS_9FloatHashIdEENS_14PairHashTraitsINS_10HashTraitsIdEENSA_IS3_EEEESB_E3addIdS3_NS_17HashMapTranslatorIS4_SD_S8_EEEES1_INS_17HashTableIteratorIdS4_S6_S8_SD_SB_EEbERKT_RKT0_
__ZN3JSCL18JSONProtoFuncParseEPNS_9ExecStateEPNS_8JSObjectENS_7JSValueERKNS_7ArgListE
__ZN3JSC13LiteralParser5Lexer3lexERNS1_18LiteralParserTokenE
__ZN3JSC13LiteralParser5parseENS0_11ParserStateE
__ZN3JSC13LiteralParser5Lexer9lexStringILNS0_10ParserModeE0EEENS0_9TokenTypeERNS1_18LiteralParserTokenE
__ZN3JSC13LiteralParser5Lexer9lexNumberERNS1_18LiteralParserTokenE
__ZN3JSC18RegExpMatchesArray3putEPNS_9ExecStateEjNS_7JSValueE
__ZNK3JSC8JSObject22isNotAnObjectErrorStubEv
__ZNK3JSC8JSObject19isWatchdogExceptionEv
__ZN3JSC11Interpreter15unwindCallFrameERPNS_9ExecStateENS_7JSValueERjRPNS_9CodeBlockE
__ZN3JSC19JSStaticScopeObject18getOwnPropertySlotEPNS_9ExecStateERKNS_10IdentifierERNS_12PropertySlotE
__ZN3JSC14TimeoutChecker10didTimeOutEPNS_9ExecStateE
__ZN3JSC17PropertyNameArray3addEPNS_11UStringImplE
__ZN3WTF9HashTableIPN3JSC11UStringImplES3_NS_17IdentityExtractorIS3_EENS_7PtrHashIS3_EENS_10HashTraitsIS3_EES9_E3addIS3_S3_NS_22IdentityHashTranslatorIS3_S3_S7_EEEESt4pairINS_17HashTableIteratorIS3_S3_S5_S7_S9_S9_EEbERKT_RKT0_
__ZN3WTF9HashTableIPN3JSC11UStringImplES3_NS_17IdentityExtractorIS3_EENS_7PtrHashIS3_EENS_10HashTraitsIS3_EES9_E6rehashEi
__ZN3JSCL21stringProtoFuncSubstrEPNS_9ExecStateEPNS_8JSObjectENS_7JSValueERKNS_7ArgListE
__ZN3JSC4Heap17collectAllGarbageEv
__ZN3JSC4Heap5sweepEv
__ZN3JSC14JSGlobalObjectD2Ev
__ZN3JSC17FunctionPrototypeD1Ev
__ZN3JSC15ObjectPrototypeD1Ev
__ZN3JSC14ArrayPrototypeD1Ev
__ZN3JSC15StringPrototypeD1Ev
__ZN3JSC16BooleanPrototypeD1Ev
__ZN3JSC15NumberPrototypeD1Ev
__ZN3JSC13DatePrototypeD1Ev
__ZN3JSC15RegExpPrototypeD1Ev
__ZN3JSC14ErrorPrototypeD1Ev
__ZN3JSC13ErrorInstanceD2Ev
__ZN3JSC20NativeErrorPrototypeD1Ev
__ZN3JSC17ObjectConstructorD1Ev
__ZN3JSC19FunctionConstructorD1Ev
__ZN3JSC16ArrayConstructorD1Ev
__ZN3JSC17StringConstructorD1Ev
__ZN3JSC18BooleanConstructorD1Ev
__ZN3JSC17NumberConstructorD1Ev
__ZN3JSC15DateConstructorD1Ev
__ZN3JSC17RegExpConstructorD1Ev
__ZN3JSC16ErrorConstructorD1Ev
__ZN3JSC22NativeErrorConstructorD1Ev
__ZN3JSC10MathObjectD1Ev
__ZN3JSC10JSONObjectD1Ev
__ZN3JSC18GlobalEvalFunctionD1Ev
__ZN3JSC22JSNotAnObjectErrorStubD1Ev
__ZN3JSC13JSNotAnObjectD1Ev
__ZN3JSC13ErrorInstanceD1Ev
__ZN3JSC19JSStaticScopeObjectD1Ev
__ZN3JSC19JSStaticScopeObjectD2Ev
__ZN3JSC17DeleteBracketNode12emitBytecodeERNS_17BytecodeGeneratorEPNS_10RegisterIDE
__ZN3JSC17BytecodeGenerator15emitDeleteByValEPNS_10RegisterIDES2_S2_
__ZN3JSC23objectProtoFuncToStringEPNS_9ExecStateEPNS_8JSObjectENS_7JSValueERKNS_7ArgListE
__ZNK3JSC8JSObject9classNameEv
__ZN3JSC10makeStringIPKcNS_7UStringES2_EES3_T_T0_T1_
__ZN3JSC17StringConstructor16getConstructDataERNS_13ConstructDataE
__ZN3JSCL30constructWithStringConstructorEPNS_9ExecStateEPNS_8JSObjectERKNS_7ArgListE
__ZN3JSC12StringObjectC1EPNS_9ExecStateEN3WTF17NonNullPassRefPtrINS_9StructureEEERKNS_7UStringE
__ZN3JSC12RegExpObject11getCallDataERNS_8CallDataE
__ZN3JSCL28substituteBackreferencesSlowERKNS_7UStringES2_PKiPNS_6RegExpEi
__ZN3JSCL21dateProtoFuncToStringEPNS_9ExecStateEPNS_8JSObjectENS_7JSValueERKNS_7ArgListE
__ZN3JSC10formatDateERKNS_17GregorianDateTimeERA100_c
__ZN3JSC10formatTimeERKNS_17GregorianDateTimeERA100_c
__ZNK3JSC8JSObject8toNumberEPNS_9ExecStateE
__ZN3JSCL20dateProtoFuncGetDateEPNS_9ExecStateEPNS_8JSObjectENS_7JSValueERKNS_7ArgListE
__ZN3JSC9MarkStack12releaseStackEPvm
__ZN3JSC14StructureChainD1Ev
__ZN3WTF11OwnArrayPtrINS_6RefPtrIN3JSC9StructureEEEE10safeDeleteEv
__ZN3JSC4Heap9freeBlockEm
__ZN3JSC4Heap12freeBlockPtrEPNS_14CollectorBlockE
__ZN3WTF13tryFastCallocEmm
__ZN3WTF10fastCallocILb0EEEPvmm
__ZN3JSCL16mathProtoFuncMinEPNS_9ExecStateEPNS_8JSObjectENS_7JSValueERKNS_7ArgListE
__ZN3JSC17NumberConstructor11getCallDataERNS_8CallDataE
__ZN3JSCL21callNumberConstructorEPNS_9ExecStateEPNS_8JSObjectENS_7JSValueERKNS_7ArgListE
__ZN3JSCL18regExpObjectSourceEPNS_9ExecStateERKNS_10IdentifierERKNS_12PropertySlotE
__ZN3JSC17RegExpConstructor11getCallDataERNS_8CallDataE
__ZN3JSCL21callRegExpConstructorEPNS_9ExecStateEPNS_8JSObjectENS_7JSValueERKNS_7ArgListE
__ZN3JSCL20arrayProtoFuncSpliceEPNS_9ExecStateEPNS_8JSObjectENS_7JSValueERKNS_7ArgListE
__ZN3JSCL18arrayProtoFuncSortEPNS_9ExecStateEPNS_8JSObjectENS_7JSValueERKNS_7ArgListE
__ZN3JSC7JSArray4sortEPNS_9ExecStateE
__ZN3JSC7JSArray17compactForSortingEv
__ZN3JSC16JSVariableObject14deletePropertyEPNS_9ExecStateERKNS_10IdentifierE
__ZN3JSC9Structure27despecifyDictionaryFunctionERKNS_10IdentifierE
__ZN3JSCL18stringFromCharCodeEPNS_9ExecStateEPNS_8JSObjectENS_7JSValueERKNS_7ArgListE
__ZN3JSC23jsSingleCharacterStringEPNS_12JSGlobalDataEt
__ZN3WTF6VectorIN3JSC7UString5RangeELm16EE15reserveCapacityEm
__ZN3WTF6VectorIN3JSC7UStringELm16EE15reserveCapacityEm
__ZN3JSC11Interpreter8callEvalEPNS_9ExecStateEPNS_12RegisterFileEPNS_8RegisterEiiRNS_7JSValueE
__ZN3JSC13EvalCodeCache3getEPNS_9ExecStateERKNS_7UStringEPNS_14ScopeChainNodeERNS_7JSValueE
__ZN3JSC14EvalExecutable7compileEPNS_9ExecStateEPNS_14ScopeChainNodeE
__ZN3JSC6Parser5parseINS_8EvalNodeEEEN3WTF10PassRefPtrIT_EEPNS_12JSGlobalDataEPNS_8DebuggerEPNS_9ExecStateERKNS_10SourceCodeEPiPNS_7UStringE
__ZN3JSC8EvalNode6createEPNS_12JSGlobalDataEPNS_14SourceElementsEPN3WTF6VectorISt4pairIPKNS_10IdentifierEjELm0EEEPNS6_IPNS_16FunctionBodyNodeELm0EEERKNS_10SourceCodeEji
__ZN3JSC13EvalCodeBlockC2EPNS_14EvalExecutableEPNS_14JSGlobalObjectEN3WTF10PassRefPtrINS_14SourceProviderEEEi
__ZN3JSC17BytecodeGeneratorC1EPNS_8EvalNodeEPKNS_8DebuggerERKNS_10ScopeChainEPN3WTF7HashMapINS9_6RefPtrINS_11UStringImplEEENS_16SymbolTableEntryENS_17IdentifierRepHashENS9_10HashTraitsISD_EENS_26SymbolTableIndexHashTraitsEEEPNS_13EvalCodeBlockE
__ZN3JSC17BytecodeGeneratorC2EPNS_8EvalNodeEPKNS_8DebuggerERKNS_10ScopeChainEPN3WTF7HashMapINS9_6RefPtrINS_11UStringImplEEENS_16SymbolTableEntryENS_17IdentifierRepHashENS9_10HashTraitsISD_EENS_26SymbolTableIndexHashTraitsEEEPNS_13EvalCodeBlockE
__ZN3JSC8EvalNode12emitBytecodeERNS_17BytecodeGeneratorEPNS_10RegisterIDE
__ZThn12_N3JSC8EvalNodeD0Ev
__ZN3JSC9ExecState9thisValueEv
__ZN3JSC11Interpreter7executeEPNS_14EvalExecutableEPNS_9ExecStateEPNS_8JSObjectEiPNS_14ScopeChainNodeEPNS_7JSValueE
__ZN3JSC14EvalExecutableD0Ev
__ZN3JSC13EvalCodeBlockD0Ev
__ZN3JSCL21stringProtoFuncCharAtEPNS_9ExecStateEPNS_8JSObjectENS_7JSValueERKNS_7ArgListE
__ZN3JSC26jsSingleCharacterSubstringEPNS_12JSGlobalDataERKNS_7UStringEj
__ZN3JSC8JSString18getPrimitiveNumberEPNS_9ExecStateERdRNS_7JSValueE
__ZN3JSCL21functionProtoFuncCallEPNS_9ExecStateEPNS_8JSObjectENS_7JSValueERKNS_7ArgListE
__ZN3JSC17DeleteResolveNode12emitBytecodeERNS_17BytecodeGeneratorEPNS_10RegisterIDE
__ZN3JSC11Interpreter11resolveBaseEPNS_9ExecStateEPNS_11InstructionE
__ZN3JSC12JSActivation14deletePropertyEPNS_9ExecStateERKNS_10IdentifierE
__ZN3JSC18PostfixBracketNode12emitBytecodeERNS_17BytecodeGeneratorEPNS_10RegisterIDE
__ZN3JSCL21arrayProtoFuncUnShiftEPNS_9ExecStateEPNS_8JSObjectENS_7JSValueERKNS_7ArgListE
__ZN3JSC10JSFunction19getOwnPropertyNamesEPNS_9ExecStateERNS_17PropertyNameArrayENS_15EnumerationModeE
__ZN3JSC12JSGlobalData6createEv
__ZN3JSC8JSObject17putDirectFunctionEPNS_9ExecStateEPNS_16InternalFunctionEj
__ZN3JSC12JSGlobalData13startSamplingEv
__ZN3JSC11Interpreter13startSamplingEv
__ZN3JSC12JSGlobalData12stopSamplingEv
__ZN3JSC11Interpreter12stopSamplingEv
__ZN3JSCL17mathProtoFuncSqrtEPNS_9ExecStateEPNS_8JSObjectENS_7JSValueERKNS_7ArgListE
__ZN3JSC11Interpreter14uncachePutByIDEPNS_9CodeBlockEPNS_11InstructionE
__ZN3JSCL16mathProtoFuncAbsEPNS_9ExecStateEPNS_8JSObjectENS_7JSValueERKNS_7ArgListE
__ZN3JSCL16mathProtoFuncCosEPNS_9ExecStateEPNS_8JSObjectENS_7JSValueERKNS_7ArgListE
__ZN3JSCL16mathProtoFuncSinEPNS_9ExecStateEPNS_8JSObjectENS_7JSValueERKNS_7ArgListE
__ZN3JSC16ArrayConstructor11getCallDataERNS_8CallDataE
__ZN3JSCL20callArrayConstructorEPNS_9ExecStateEPNS_8JSObjectENS_7JSValueERKNS_7ArgListE
__ZN3WTF6VectorIPN3JSC9StructureELm8EE14expandCapacityEmPKS3_
__ZN3WTFL3i2bERNS_6BigIntEi
__ZN3WTFL3b2dERKNS_6BigIntEPi
__ZN3JSC16toUInt32SlowCaseEdRb
__ZN3WTF29RefPtrHashMapRawKeyTranslatorIPN3JSC11UStringImplESt4pairINS_6RefPtrIS2_EENS5_INS1_14EvalExecutableEEEENS_14PairHashTraitsINS_10HashTraitsIS6_EENSB_IS8_EEEENS_7StrHashIS6_EEE9translateERS9_S3_RKS8_
__ZN3JSC11Interpreter11resolveSkipEPNS_9ExecStateEPNS_11InstructionERNS_7JSValueE
__ZN3JSCL24dateProtoFuncGetFullYearEPNS_9ExecStateEPNS_8JSObjectENS_7JSValueERKNS_7ArgListE
__ZN3JSCL23dateProtoFuncGetSecondsEPNS_9ExecStateEPNS_8JSObjectENS_7JSValueERKNS_7ArgListE
__ZN3JSC9CodeBlock27addCharacterSwitchJumpTableEv
__ZN3JSCL16mathProtoFuncPowEPNS_9ExecStateEPNS_8JSObjectENS_7JSValueERKNS_7ArgListE
__ZN3JSC7JSArray19getOwnPropertyNamesEPNS_9ExecStateERNS_17PropertyNameArrayENS_15EnumerationModeE
__ZN3JSC9ExecState10arrayTableEPS0_
__ZN3JSC20MarkedArgumentBuffer10slowAppendENS_7JSValueE
__ZN3WTF9HashTableIPN3JSC20MarkedArgumentBufferES3_NS_17IdentityExtractorIS3_EENS_7PtrHashIS3_EENS_10HashTraitsIS3_EES9_E3addIS3_S3_NS_22IdentityHashTranslatorIS3_S3_S7_EEEESt4pairINS_17HashTableIteratorIS3_S3_S5_S7_S9_S9_EEbERKT_RKT0_
__ZN3WTF9HashTableIPN3JSC20MarkedArgumentBufferES3_NS_17IdentityExtractorIS3_EENS_7PtrHashIS3_EENS_10HashTraitsIS3_EES9_E6rehashEi
__ZN3WTF9HashTableIPN3JSC20MarkedArgumentBufferES3_NS_17IdentityExtractorIS3_EENS_7PtrHashIS3_EENS_10HashTraitsIS3_EES9_E4findIS3_NS_22IdentityHashTranslatorIS3_S3_S7_EEEENS_17HashTableIteratorIS3_S3_S5_S7_S9_S9_EERKT_
__ZN3JSC15ObjectPrototype3putEPNS_9ExecStateERKNS_10IdentifierENS_7JSValueERNS_15PutPropertySlotE
__ZN3JSCL16mathProtoFuncLogEPNS_9ExecStateEPNS_8JSObjectENS_7JSValueERKNS_7ArgListE
__ZN3JSC13LiteralParser5Lexer9lexStringILNS0_10ParserModeE1EEENS0_9TokenTypeERNS1_18LiteralParserTokenE
__ZNK3JSC9ArrayNode13isSimpleArrayEv
__ZNK3JSC9ArrayNode14toArgumentListEPNS_12JSGlobalDataE
__ZN3WTF9HashTableIPN3JSC11UStringImplES3_NS_17IdentityExtractorIS3_EENS_7PtrHashIS3_EENS_10HashTraitsIS3_EES9_E4findIS3_NS_22IdentityHashTranslatorIS3_S3_S7_EEEENS_17HashTableIteratorIS3_S3_S5_S7_S9_S9_EERKT_
__ZN3JSC7JSArray4sortEPNS_9ExecStateENS_7JSValueENS_8CallTypeERKNS_8CallDataE
__ZN3WTF6VectorIN3JSC26AVLTreeNodeForArrayCompareELm0EE6resizeEm
__ZN3WTF7AVLTreeIN3JSC32AVLTreeAbstractorForArrayCompareELj44ENS_18AVLTreeDefaultBSetILj44EEEE6insertEi
__ZN3JSC32AVLTreeAbstractorForArrayCompare15compare_key_keyENS_7JSValueES1_
__ZN3JSCltERKNS_7UStringES2_
__ZN3WTF7AVLTreeIN3JSC32AVLTreeAbstractorForArrayCompareELj44ENS_18AVLTreeDefaultBSetILj44EEEE7balanceEi
__ZN3JSCL21stringProtoFuncConcatEPNS_9ExecStateEPNS_8JSObjectENS_7JSValueERKNS_7ArgListE
__ZN3JSC12JSGlobalData14dumpSampleDataEPNS_9ExecStateE
__ZN3JSC11Interpreter14dumpSampleDataEPNS_9ExecStateE
__ZN3JSC4Heap7destroyEv
__ZN3JSC4Heap10freeBlocksEv
__ZN3JSC14JSGlobalObject25destroyJSGlobalObjectDataEPv
__ZN3JSC14JSGlobalObject18JSGlobalObjectDataD2Ev
__ZN3JSC12JSGlobalDataD1Ev
__ZN3JSC12JSGlobalDataD2Ev
__ZN3JSC12RegisterFileD1Ev
__ZNK3JSC9HashTable11deleteTableEv
__ZN3JSC5LexerD1Ev
__ZN3JSC17CommonIdentifiersD2Ev
__ZN3JSC21deleteIdentifierTableEPNS_15IdentifierTableE
__ZN3JSC15IdentifierTableD2Ev
__ZN3JSC4HeapD1Ev
__ZN3JSC14NumericStringsD1Ev
__ZN3JSC12SmallStringsD1Ev